

Microchip MPLAB XC8 Assembler V2.45 build 20230818022343 
                                                                                               Mon May 20 01:31:14 2024

Microchip MPLAB XC8 C Compiler v2.45 (Free license) build 20230818022343 Og1 
     1                           	processor	16F877A
     2                           	pagewidth 120
     3                           	opt	flic
     4                           	psect	idataBANK0,global,class=CODE,delta=2,noexec
     5                           	psect	idataBANK1,global,class=CODE,delta=2,noexec
     6                           	psect	strings,global,class=STRING,delta=2,noexec
     7                           	psect	cinit,global,class=CODE,merge=1,delta=2
     8                           	psect	bssBANK0,global,class=BANK0,space=1,delta=1,noexec
     9                           	psect	dataBANK0,global,class=BANK0,space=1,delta=1,noexec
    10                           	psect	bssBANK1,global,class=BANK1,space=1,delta=1,noexec
    11                           	psect	dataBANK1,global,class=BANK1,space=1,delta=1,noexec
    12                           	psect	inittext,global,class=CODE,delta=2
    13                           	psect	clrtext,global,class=CODE,delta=2
    14                           	psect	cstackCOMMON,global,class=COMMON,space=1,delta=1,noexec
    15                           	psect	cstackBANK0,global,class=BANK0,space=1,delta=1,noexec
    16                           	psect	maintext,global,class=CODE,split=1,delta=2
    17                           	psect	text1,local,class=CODE,merge=1,delta=2
    18                           	psect	text2,local,class=CODE,merge=1,delta=2
    19                           	psect	text3,local,class=CODE,merge=1,delta=2
    20                           	psect	text4,local,class=CODE,merge=1,delta=2
    21                           	psect	text5,local,class=CODE,merge=1,delta=2
    22                           	psect	text6,local,class=CODE,merge=1,delta=2
    23                           	psect	text7,local,class=CODE,merge=1,delta=2
    24                           	psect	text8,local,class=CODE,merge=1,delta=2
    25                           	psect	text9,local,class=CODE,merge=1,delta=2
    26                           	psect	text10,local,class=CODE,merge=1,delta=2
    27                           	psect	text11,local,class=CODE,merge=1,delta=2
    28                           	psect	text12,local,class=CODE,merge=1,delta=2
    29                           	psect	text13,local,class=CODE,merge=1,delta=2
    30                           	psect	text14,local,class=CODE,merge=1,delta=2
    31                           	psect	text15,local,class=CODE,merge=1,delta=2
    32                           	psect	text16,local,class=CODE,merge=1,delta=2
    33                           	psect	text17,local,class=CODE,merge=1,delta=2,group=1
    34                           	psect	text18,local,class=CODE,merge=1,delta=2,group=1
    35                           	psect	text19,local,class=CODE,merge=1,delta=2,group=1
    36                           	psect	text20,local,class=CODE,merge=1,delta=2,group=1
    37                           	psect	text21,local,class=CODE,merge=1,delta=2,group=1
    38                           	psect	text22,local,class=CODE,merge=1,delta=2,group=1
    39                           	psect	text23,local,class=CODE,merge=1,delta=2,group=1
    40                           	psect	text24,local,class=CODE,merge=1,delta=2,group=1
    41                           	psect	text25,local,class=CODE,merge=1,delta=2,group=1
    42                           	psect	text26,local,class=CODE,merge=1,delta=2,group=1
    43                           	psect	text27,local,class=CODE,merge=1,delta=2,group=1
    44                           	psect	config,global,abs,ovrld,class=CONFIG,space=4,delta=2,noexec
    45                           	dabs	1,0x7E,2
    46     0000                     
    47                           ; Generated 22/03/2023 GMT
    48                           ; 
    49                           ; Copyright © 2023, Microchip Technology Inc. and its subsidiaries ("Microchip")
    50                           ; All rights reserved.
    51                           ; 
    52                           ; This software is developed by Microchip Technology Inc. and its subsidiaries ("Microch
      +                          ip").
    53                           ; 
    54                           ; Redistribution and use in source and binary forms, with or without modification, are
    55                           ; permitted provided that the following conditions are met:
    56                           ; 
    57                           ;     1. Redistributions of source code must retain the above copyright notice, this lis
      +                          t of
    58                           ;        conditions and the following disclaimer.
    59                           ; 
    60                           ;     2. Redistributions in binary form must reproduce the above copyright notice, this 
      +                          list
    61                           ;        of conditions and the following disclaimer in the documentation and/or other
    62                           ;        materials provided with the distribution. Publication is not required when
    63                           ;        this file is used in an embedded application.
    64                           ; 
    65                           ;     3. Microchip's name may not be used to endorse or promote products derived from th
      +                          is
    66                           ;        software without specific prior written permission.
    67                           ; 
    68                           ; THIS SOFTWARE IS PROVIDED BY MICROCHIP "AS IS" AND ANY EXPRESS OR IMPLIED WARRANTIES,
    69                           ; INCLUDING, BUT NOT LIMITED TO, THE IMPLIED WARRANTIES OF MERCHANTABILITY AND FITNESS F
      +                          OR
    70                           ; PURPOSE ARE DISCLAIMED.  IN NO EVENT SHALL MICROCHIP BE LIABLE FOR ANY DIRECT, INDIREC
      +                          T,
    71                           ; INCIDENTAL, SPECIAL, EXEMPLARY, OR CONSEQUENTIAL DAMAGES (INCLUDING BUT NOT LIMITED TO
    72                           ; PROCUREMENT OF SUBSTITUTE GOODS OR SERVICES; LOSS OF USE, DATA OR PROFITS; OR BUSINESS
    73                           ; INTERRUPTION) HOWSOEVER CAUSED AND ON ANY THEORY OF LIABILITY, WHETHER IN CONTRACT, ST
      +                          RICT
    74                           ; LIABILITY, OR TORT (INCLUDING NEGLIGENCE OR OTHERWISE) ARISING IN ANY WAY OUT OF THE U
      +                          SE OF
    75                           ; THIS SOFTWARE, EVEN IF ADVISED OF THE POSSIBILITY OF SUCH DAMAGE.
    76                           ; 
    77                           ; 
    78                           ; Code-generator required, PIC16F877A Definitions
    79                           ; 
    80                           ; SFR Addresses
    81     0000                     	;# 
    82     0001                     	;# 
    83     0002                     	;# 
    84     0003                     	;# 
    85     0004                     	;# 
    86     0005                     	;# 
    87     0006                     	;# 
    88     0007                     	;# 
    89     0008                     	;# 
    90     0009                     	;# 
    91     000A                     	;# 
    92     000B                     	;# 
    93     000C                     	;# 
    94     000D                     	;# 
    95     000E                     	;# 
    96     000E                     	;# 
    97     000F                     	;# 
    98     0010                     	;# 
    99     0011                     	;# 
   100     0012                     	;# 
   101     0013                     	;# 
   102     0014                     	;# 
   103     0015                     	;# 
   104     0015                     	;# 
   105     0016                     	;# 
   106     0017                     	;# 
   107     0018                     	;# 
   108     0019                     	;# 
   109     001A                     	;# 
   110     001B                     	;# 
   111     001B                     	;# 
   112     001C                     	;# 
   113     001D                     	;# 
   114     001E                     	;# 
   115     001F                     	;# 
   116     0081                     	;# 
   117     0085                     	;# 
   118     0086                     	;# 
   119     0087                     	;# 
   120     0088                     	;# 
   121     0089                     	;# 
   122     008C                     	;# 
   123     008D                     	;# 
   124     008E                     	;# 
   125     0091                     	;# 
   126     0092                     	;# 
   127     0093                     	;# 
   128     0094                     	;# 
   129     0098                     	;# 
   130     0099                     	;# 
   131     009C                     	;# 
   132     009D                     	;# 
   133     009E                     	;# 
   134     009F                     	;# 
   135     010C                     	;# 
   136     010D                     	;# 
   137     010E                     	;# 
   138     010F                     	;# 
   139     018C                     	;# 
   140     018D                     	;# 
   141     0000                     	;# 
   142     0001                     	;# 
   143     0002                     	;# 
   144     0003                     	;# 
   145     0004                     	;# 
   146     0005                     	;# 
   147     0006                     	;# 
   148     0007                     	;# 
   149     0008                     	;# 
   150     0009                     	;# 
   151     000A                     	;# 
   152     000B                     	;# 
   153     000C                     	;# 
   154     000D                     	;# 
   155     000E                     	;# 
   156     000E                     	;# 
   157     000F                     	;# 
   158     0010                     	;# 
   159     0011                     	;# 
   160     0012                     	;# 
   161     0013                     	;# 
   162     0014                     	;# 
   163     0015                     	;# 
   164     0015                     	;# 
   165     0016                     	;# 
   166     0017                     	;# 
   167     0018                     	;# 
   168     0019                     	;# 
   169     001A                     	;# 
   170     001B                     	;# 
   171     001B                     	;# 
   172     001C                     	;# 
   173     001D                     	;# 
   174     001E                     	;# 
   175     001F                     	;# 
   176     0081                     	;# 
   177     0085                     	;# 
   178     0086                     	;# 
   179     0087                     	;# 
   180     0088                     	;# 
   181     0089                     	;# 
   182     008C                     	;# 
   183     008D                     	;# 
   184     008E                     	;# 
   185     0091                     	;# 
   186     0092                     	;# 
   187     0093                     	;# 
   188     0094                     	;# 
   189     0098                     	;# 
   190     0099                     	;# 
   191     009C                     	;# 
   192     009D                     	;# 
   193     009E                     	;# 
   194     009F                     	;# 
   195     010C                     	;# 
   196     010D                     	;# 
   197     010E                     	;# 
   198     010F                     	;# 
   199     018C                     	;# 
   200     018D                     	;# 
   201     0000                     	;# 
   202     0001                     	;# 
   203     0002                     	;# 
   204     0003                     	;# 
   205     0004                     	;# 
   206     0005                     	;# 
   207     0006                     	;# 
   208     0007                     	;# 
   209     0008                     	;# 
   210     0009                     	;# 
   211     000A                     	;# 
   212     000B                     	;# 
   213     000C                     	;# 
   214     000D                     	;# 
   215     000E                     	;# 
   216     000E                     	;# 
   217     000F                     	;# 
   218     0010                     	;# 
   219     0011                     	;# 
   220     0012                     	;# 
   221     0013                     	;# 
   222     0014                     	;# 
   223     0015                     	;# 
   224     0015                     	;# 
   225     0016                     	;# 
   226     0017                     	;# 
   227     0018                     	;# 
   228     0019                     	;# 
   229     001A                     	;# 
   230     001B                     	;# 
   231     001B                     	;# 
   232     001C                     	;# 
   233     001D                     	;# 
   234     001E                     	;# 
   235     001F                     	;# 
   236     0081                     	;# 
   237     0085                     	;# 
   238     0086                     	;# 
   239     0087                     	;# 
   240     0088                     	;# 
   241     0089                     	;# 
   242     008C                     	;# 
   243     008D                     	;# 
   244     008E                     	;# 
   245     0091                     	;# 
   246     0092                     	;# 
   247     0093                     	;# 
   248     0094                     	;# 
   249     0098                     	;# 
   250     0099                     	;# 
   251     009C                     	;# 
   252     009D                     	;# 
   253     009E                     	;# 
   254     009F                     	;# 
   255     010C                     	;# 
   256     010D                     	;# 
   257     010E                     	;# 
   258     010F                     	;# 
   259     018C                     	;# 
   260     018D                     	;# 
   261     0000                     	;# 
   262     0001                     	;# 
   263     0002                     	;# 
   264     0003                     	;# 
   265     0004                     	;# 
   266     0005                     	;# 
   267     0006                     	;# 
   268     0007                     	;# 
   269     0008                     	;# 
   270     0009                     	;# 
   271     000A                     	;# 
   272     000B                     	;# 
   273     000C                     	;# 
   274     000D                     	;# 
   275     000E                     	;# 
   276     000E                     	;# 
   277     000F                     	;# 
   278     0010                     	;# 
   279     0011                     	;# 
   280     0012                     	;# 
   281     0013                     	;# 
   282     0014                     	;# 
   283     0015                     	;# 
   284     0015                     	;# 
   285     0016                     	;# 
   286     0017                     	;# 
   287     0018                     	;# 
   288     0019                     	;# 
   289     001A                     	;# 
   290     001B                     	;# 
   291     001B                     	;# 
   292     001C                     	;# 
   293     001D                     	;# 
   294     001E                     	;# 
   295     001F                     	;# 
   296     0081                     	;# 
   297     0085                     	;# 
   298     0086                     	;# 
   299     0087                     	;# 
   300     0088                     	;# 
   301     0089                     	;# 
   302     008C                     	;# 
   303     008D                     	;# 
   304     008E                     	;# 
   305     0091                     	;# 
   306     0092                     	;# 
   307     0093                     	;# 
   308     0094                     	;# 
   309     0098                     	;# 
   310     0099                     	;# 
   311     009C                     	;# 
   312     009D                     	;# 
   313     009E                     	;# 
   314     009F                     	;# 
   315     010C                     	;# 
   316     010D                     	;# 
   317     010E                     	;# 
   318     010F                     	;# 
   319     018C                     	;# 
   320     018D                     	;# 
   321     0000                     	;# 
   322     0001                     	;# 
   323     0002                     	;# 
   324     0003                     	;# 
   325     0004                     	;# 
   326     0005                     	;# 
   327     0006                     	;# 
   328     0007                     	;# 
   329     0008                     	;# 
   330     0009                     	;# 
   331     000A                     	;# 
   332     000B                     	;# 
   333     000C                     	;# 
   334     000D                     	;# 
   335     000E                     	;# 
   336     000E                     	;# 
   337     000F                     	;# 
   338     0010                     	;# 
   339     0011                     	;# 
   340     0012                     	;# 
   341     0013                     	;# 
   342     0014                     	;# 
   343     0015                     	;# 
   344     0015                     	;# 
   345     0016                     	;# 
   346     0017                     	;# 
   347     0018                     	;# 
   348     0019                     	;# 
   349     001A                     	;# 
   350     001B                     	;# 
   351     001B                     	;# 
   352     001C                     	;# 
   353     001D                     	;# 
   354     001E                     	;# 
   355     001F                     	;# 
   356     0081                     	;# 
   357     0085                     	;# 
   358     0086                     	;# 
   359     0087                     	;# 
   360     0088                     	;# 
   361     0089                     	;# 
   362     008C                     	;# 
   363     008D                     	;# 
   364     008E                     	;# 
   365     0091                     	;# 
   366     0092                     	;# 
   367     0093                     	;# 
   368     0094                     	;# 
   369     0098                     	;# 
   370     0099                     	;# 
   371     009C                     	;# 
   372     009D                     	;# 
   373     009E                     	;# 
   374     009F                     	;# 
   375     010C                     	;# 
   376     010D                     	;# 
   377     010E                     	;# 
   378     010F                     	;# 
   379     018C                     	;# 
   380     018D                     	;# 
   381     0000                     	;# 
   382     0001                     	;# 
   383     0002                     	;# 
   384     0003                     	;# 
   385     0004                     	;# 
   386     0005                     	;# 
   387     0006                     	;# 
   388     0007                     	;# 
   389     0008                     	;# 
   390     0009                     	;# 
   391     000A                     	;# 
   392     000B                     	;# 
   393     000C                     	;# 
   394     000D                     	;# 
   395     000E                     	;# 
   396     000E                     	;# 
   397     000F                     	;# 
   398     0010                     	;# 
   399     0011                     	;# 
   400     0012                     	;# 
   401     0013                     	;# 
   402     0014                     	;# 
   403     0015                     	;# 
   404     0015                     	;# 
   405     0016                     	;# 
   406     0017                     	;# 
   407     0018                     	;# 
   408     0019                     	;# 
   409     001A                     	;# 
   410     001B                     	;# 
   411     001B                     	;# 
   412     001C                     	;# 
   413     001D                     	;# 
   414     001E                     	;# 
   415     001F                     	;# 
   416     0081                     	;# 
   417     0085                     	;# 
   418     0086                     	;# 
   419     0087                     	;# 
   420     0088                     	;# 
   421     0089                     	;# 
   422     008C                     	;# 
   423     008D                     	;# 
   424     008E                     	;# 
   425     0091                     	;# 
   426     0092                     	;# 
   427     0093                     	;# 
   428     0094                     	;# 
   429     0098                     	;# 
   430     0099                     	;# 
   431     009C                     	;# 
   432     009D                     	;# 
   433     009E                     	;# 
   434     009F                     	;# 
   435     010C                     	;# 
   436     010D                     	;# 
   437     010E                     	;# 
   438     010F                     	;# 
   439     018C                     	;# 
   440     018D                     	;# 
   441     0000                     	;# 
   442     0001                     	;# 
   443     0002                     	;# 
   444     0003                     	;# 
   445     0004                     	;# 
   446     0005                     	;# 
   447     0006                     	;# 
   448     0007                     	;# 
   449     0008                     	;# 
   450     0009                     	;# 
   451     000A                     	;# 
   452     000B                     	;# 
   453     000C                     	;# 
   454     000D                     	;# 
   455     000E                     	;# 
   456     000E                     	;# 
   457     000F                     	;# 
   458     0010                     	;# 
   459     0011                     	;# 
   460     0012                     	;# 
   461     0013                     	;# 
   462     0014                     	;# 
   463     0015                     	;# 
   464     0015                     	;# 
   465     0016                     	;# 
   466     0017                     	;# 
   467     0018                     	;# 
   468     0019                     	;# 
   469     001A                     	;# 
   470     001B                     	;# 
   471     001B                     	;# 
   472     001C                     	;# 
   473     001D                     	;# 
   474     001E                     	;# 
   475     001F                     	;# 
   476     0081                     	;# 
   477     0085                     	;# 
   478     0086                     	;# 
   479     0087                     	;# 
   480     0088                     	;# 
   481     0089                     	;# 
   482     008C                     	;# 
   483     008D                     	;# 
   484     008E                     	;# 
   485     0091                     	;# 
   486     0092                     	;# 
   487     0093                     	;# 
   488     0094                     	;# 
   489     0098                     	;# 
   490     0099                     	;# 
   491     009C                     	;# 
   492     009D                     	;# 
   493     009E                     	;# 
   494     009F                     	;# 
   495     010C                     	;# 
   496     010D                     	;# 
   497     010E                     	;# 
   498     010F                     	;# 
   499     018C                     	;# 
   500     018D                     	;# 
   501                           
   502                           	psect	idataBANK0
   503     14A5                     __pidataBANK0:
   504                           
   505                           ;initializer for _lcd1
   506     14A5  3402               	retlw	2
   507     14A6  340A               	retlw	10
   508     14A7  3412               	retlw	18
   509     14A8  341A               	retlw	26
   510     14A9  3403               	retlw	3
   511     14AA  340B               	retlw	11
   512                           
   513                           	psect	idataBANK1
   514     14BE                     __pidataBANK1:
   515                           
   516                           ;initializer for _port_registers
   517     14BE  3405               	retlw	5
   518     14BF  3400               	retlw	0
   519     14C0  3406               	retlw	6
   520     14C1  3400               	retlw	0
   521     14C2  3407               	retlw	7
   522     14C3  3400               	retlw	0
   523     14C4  3408               	retlw	8
   524     14C5  3400               	retlw	0
   525     14C6  3409               	retlw	9
   526     14C7  3400               	retlw	0
   527                           
   528                           ;initializer for _tris_registers
   529     14C8  3485               	retlw	133
   530     14C9  3400               	retlw	0
   531     14CA  3486               	retlw	134
   532     14CB  3400               	retlw	0
   533     14CC  3487               	retlw	135
   534     14CD  3400               	retlw	0
   535     14CE  3488               	retlw	136
   536     14CF  3400               	retlw	0
   537     14D0  3489               	retlw	137
   538     14D1  3400               	retlw	0
   539                           
   540                           ;initializer for _keypad1
   541     14D2  3413               	retlw	19
   542     14D3  341B               	retlw	27
   543     14D4  3422               	retlw	34
   544     14D5  342A               	retlw	42
   545     14D6  3472               	retlw	114
   546     14D7  347A               	retlw	122
   547     14D8  3463               	retlw	99
   548     14D9  346B               	retlw	107
   549                           
   550                           	psect	strings
   551     1000                     __pstrings:
   552     1000                     stringtab:
   553     1000                     __stringtab:
   554                           
   555                           ;	String table - string pointers are 1 byte each
   556     1000  1BFF               	btfsc	btemp+1,7
   557     1001  280A               	ljmp	stringcode
   558     1002  1383               	bcf	3,7
   559     1003  187F               	btfsc	btemp+1,0
   560     1004  1783               	bsf	3,7
   561     1005  0800               	movf	0,w
   562     1006  0A84               	incf	4,f
   563     1007  1903               	skipnz
   564     1008  0AFF               	incf	btemp+1,f
   565     1009  0008               	return
   566     100A                     stringcode:
   567     100A                     stringdir:
   568     100A  3010               	movlw	high stringdir
   569     100B  008A               	movwf	10
   570     100C  0804               	movf	4,w
   571     100D  0A84               	incf	4,f
   572     100E  0782               	addwf	2,f
   573     100F                     __stringbase:
   574     100F  3400               	retlw	0
   575     1010                     __end_of__stringtab:
   576     1010                     _keypad_btns:
   577     1010  3431               	retlw	49
   578     1011  3432               	retlw	50
   579     1012  3433               	retlw	51
   580     1013  342F               	retlw	47
   581     1014  3434               	retlw	52
   582     1015  3435               	retlw	53
   583     1016  3436               	retlw	54
   584     1017  342A               	retlw	42
   585     1018  3437               	retlw	55
   586     1019  3438               	retlw	56
   587     101A  3439               	retlw	57
   588     101B  342D               	retlw	45
   589     101C  3423               	retlw	35
   590     101D  3430               	retlw	48
   591     101E  343D               	retlw	61
   592     101F  342B               	retlw	43
   593     1020                     __end_of_keypad_btns:
   594     0009                     _PORTE	set	9
   595     0008                     _PORTD	set	8
   596     0007                     _PORTC	set	7
   597     0006                     _PORTB	set	6
   598     0005                     _PORTA	set	5
   599     0089                     _TRISE	set	137
   600     0088                     _TRISD	set	136
   601     0087                     _TRISC	set	135
   602     0086                     _TRISB	set	134
   603     0085                     _TRISA	set	133
   604     1020                     STR_1:
   605     1020  3457               	retlw	87	;'W'
   606     1021  3465               	retlw	101	;'e'
   607     1022  346C               	retlw	108	;'l'
   608     1023  3463               	retlw	99	;'c'
   609     1024  346F               	retlw	111	;'o'
   610     1025  346D               	retlw	109	;'m'
   611     1026  3465               	retlw	101	;'e'
   612     1027  3400               	retlw	0
   613     1028                     STR_2:
   614     1028  3445               	retlw	69	;'E'
   615     1029  3452               	retlw	82	;'R'
   616     102A  3452               	retlw	82	;'R'
   617     102B  344F               	retlw	79	;'O'
   618     102C  3452               	retlw	82	;'R'
   619     102D  3400               	retlw	0
   620                           
   621                           	psect	cinit
   622     07D1                     start_initialization:	
   623                           ; #config settings
   624                           
   625     07D1                     __initialization:
   626                           
   627                           ; Initialize objects allocated to BANK1
   628     07D1  1383               	bcf	3,7	;select IRP bank0
   629     07D2  30BC               	movlw	low (__pdataBANK1+28)
   630     07D3  00FD               	movwf	btemp+-1
   631     07D4  3014               	movlw	high __pidataBANK1
   632     07D5  00FE               	movwf	btemp
   633     07D6  30BE               	movlw	low __pidataBANK1
   634     07D7  00FF               	movwf	btemp+1
   635     07D8  30A0               	movlw	low __pdataBANK1
   636     07D9  0084               	movwf	4
   637     07DA  160A  118A  24AF  120A  118A  	fcall	init_ram0
   638                           
   639                           ; Initialize objects allocated to BANK0
   640     07DF  3070               	movlw	low (__pdataBANK0+6)
   641     07E0  00FD               	movwf	btemp+-1
   642     07E1  3014               	movlw	high __pidataBANK0
   643     07E2  00FE               	movwf	btemp
   644     07E3  30A5               	movlw	low __pidataBANK0
   645     07E4  00FF               	movwf	btemp+1
   646     07E5  306A               	movlw	low __pdataBANK0
   647     07E6  0084               	movwf	4
   648     07E7  160A  118A  24AF  120A  118A  	fcall	init_ram0
   649                           
   650                           ; Clear objects allocated to BANK1
   651     07EC  30BC               	movlw	low __pbssBANK1
   652     07ED  0084               	movwf	4
   653     07EE  30C7               	movlw	low (__pbssBANK1+11)
   654     07EF  120A  158A  2001  120A  118A  	fcall	clear_ram0
   655                           
   656                           ; Clear objects allocated to BANK0
   657     07F4  305C               	movlw	low __pbssBANK0
   658     07F5  0084               	movwf	4
   659     07F6  306A               	movlw	low (__pbssBANK0+14)
   660     07F7  120A  158A  2001  120A  118A  	fcall	clear_ram0
   661     07FC                     end_of_initialization:	
   662                           ;End of C runtime variable initialization code
   663                           
   664     07FC                     __end_of__initialization:
   665     07FC  0183               	clrf	3
   666     07FD  120A  118A  284B   	ljmp	_main	;jump to C main() function
   667                           
   668                           	psect	bssBANK0
   669     005C                     __pbssBANK0:
   670     005C                     _res:
   671     005C                     	ds	4
   672     0060                     _exp:
   673     0060                     	ds	3
   674     0063                     _error_flag:
   675     0063                     	ds	1
   676     0064                     _counter:
   677     0064                     	ds	1
   678     0065                     led_turn_toggle@F1593:
   679     0065                     	ds	1
   680     0066                     led_turn_on@F1588:
   681     0066                     	ds	1
   682     0067                     led_turn_off@F1583:
   683     0067                     	ds	1
   684     0068                     led_intialize@F1578:
   685     0068                     	ds	1
   686     0069                     _key_value:
   687     0069                     	ds	1
   688                           
   689                           	psect	dataBANK0
   690     006A                     __pdataBANK0:
   691     006A                     _lcd1:
   692     006A                     	ds	6
   693                           
   694                           	psect	bssBANK1
   695     00BC                     __pbssBANK1:
   696     00BC                     _res_str:
   697     00BC                     	ds	11
   698                           
   699                           	psect	dataBANK1
   700     00A0                     __pdataBANK1:
   701     00A0                     _port_registers:
   702     00A0                     	ds	10
   703     00AA                     _tris_registers:
   704     00AA                     	ds	10
   705     00B4                     _keypad1:
   706     00B4                     	ds	8
   707                           
   708                           	psect	inittext
   709     14AB                     init_fetch0:	
   710                           ;	Called with low address in FSR and high address in W
   711                           
   712     14AB  087E               	movf	btemp,w
   713     14AC  008A               	movwf	10
   714     14AD  087F               	movf	btemp+1,w
   715     14AE  0082               	movwf	2
   716     14AF                     init_ram0:	
   717                           ;Called with:
   718                           ;	high address of idata address in btemp 
   719                           ;	low address of idata address in btemp+1 
   720                           ;	low address of data in FSR
   721                           ;	high address + 1 of data in btemp-1
   722                           
   723     14AF  160A  118A  24AB  160A  118A  	fcall	init_fetch0
   724     14B4  0080               	movwf	0
   725     14B5  0A84               	incf	4,f
   726     14B6  0804               	movf	4,w
   727     14B7  067D               	xorwf	btemp+-1,w
   728     14B8  1903               	btfsc	3,2
   729     14B9  3400               	retlw	0
   730     14BA  0AFF               	incf	btemp+1,f
   731     14BB  1903               	btfsc	3,2
   732     14BC  0AFE               	incf	btemp,f
   733     14BD  2CAF               	goto	init_ram0
   734                           
   735                           	psect	clrtext
   736     0801                     clear_ram0:	
   737                           ;	Called with FSR containing the base address, and
   738                           ;	W with the last address+1
   739                           
   740     0801  0064               	clrwdt	;clear the watchdog before getting into this loop
   741     0802                     clrloop0:
   742     0802  0180               	clrf	0	;clear RAM location pointed to by FSR
   743     0803  0A84               	incf	4,f	;increment pointer
   744     0804  0604               	xorwf	4,w	;XOR with final address
   745     0805  1903               	btfsc	3,2	;have we reached the end yet?
   746     0806  3400               	retlw	0	;all done for this memory range, return
   747     0807  0604               	xorwf	4,w	;XOR again to restore value
   748     0808  2802               	goto	clrloop0	;do the next byte
   749                           
   750                           	psect	cstackCOMMON
   751     0070                     __pcstackCOMMON:
   752     0070                     ?___flge:
   753     0070                     ?_gpio_pin_write_logic:	
   754                           ; 1 bit 
   755                           
   756     0070                     ?_gpio_pin_initialize_direction:	
   757                           ; 1 bytes @ 0x0
   758                           
   759     0070                     ??_gpio_pin_initialize_direction:	
   760                           ; 1 bytes @ 0x0
   761                           
   762     0070                     ?_gpio_pin_read_logic:	
   763                           ; 1 bytes @ 0x0
   764                           
   765     0070                     ?___lbdiv:	
   766                           ; 1 bytes @ 0x0
   767                           
   768     0070                     ?___lbmod:	
   769                           ; 1 bytes @ 0x0
   770                           
   771     0070                     ?__Umul8_16:	
   772                           ; 1 bytes @ 0x0
   773                           
   774     0070                     ?_main:	
   775                           ; 2 bytes @ 0x0
   776                           
   777     0070                     ?___awdiv:	
   778                           ; 2 bytes @ 0x0
   779                           
   780     0070                     ?___fltol:	
   781                           ; 2 bytes @ 0x0
   782                           
   783     0070                     gpio_pin_write_logic@logic:	
   784                           ; 4 bytes @ 0x0
   785                           
   786     0070                     gpio_pin_read_logic@logic:	
   787                           ; 1 bytes @ 0x0
   788                           
   789     0070                     ___lbdiv@divisor:	
   790                           ; 1 bytes @ 0x0
   791                           
   792     0070                     ___lbmod@divisor:	
   793                           ; 1 bytes @ 0x0
   794                           
   795     0070                     __Umul8_16@multiplicand:	
   796                           ; 1 bytes @ 0x0
   797                           
   798     0070                     ___awdiv@divisor:	
   799                           ; 1 bytes @ 0x0
   800                           
   801     0070                     ___flge@ff1:	
   802                           ; 2 bytes @ 0x0
   803                           
   804     0070                     ___fltol@f1:	
   805                           ; 4 bytes @ 0x0
   806                           
   807                           
   808                           ; 4 bytes @ 0x0
   809     0070                     	ds	1
   810     0071                     ??_gpio_pin_write_logic:
   811     0071                     ??_gpio_pin_read_logic:	
   812                           ; 1 bytes @ 0x1
   813                           
   814     0071                     ??___lbdiv:	
   815                           ; 1 bytes @ 0x1
   816                           
   817     0071                     ??___lbmod:	
   818                           ; 1 bytes @ 0x1
   819                           
   820     0071                     ___lbdiv@dividend:	
   821                           ; 1 bytes @ 0x1
   822                           
   823                           
   824                           ; 1 bytes @ 0x1
   825     0071                     	ds	1
   826     0072                     ??__Umul8_16:
   827     0072                     ___lbdiv@counter:	
   828                           ; 1 bytes @ 0x2
   829                           
   830     0072                     ___awdiv@dividend:	
   831                           ; 1 bytes @ 0x2
   832                           
   833                           
   834                           ; 2 bytes @ 0x2
   835     0072                     	ds	1
   836     0073                     ___lbdiv@quotient:
   837     0073                     ___lbmod@dividend:	
   838                           ; 1 bytes @ 0x3
   839                           
   840                           
   841                           ; 1 bytes @ 0x3
   842     0073                     	ds	1
   843     0074                     ??___awdiv:
   844     0074                     ??___fltol:	
   845                           ; 1 bytes @ 0x4
   846                           
   847     0074                     ___awdiv@counter:	
   848                           ; 1 bytes @ 0x4
   849                           
   850     0074                     ___lbmod@counter:	
   851                           ; 1 bytes @ 0x4
   852                           
   853     0074                     __Umul8_16@product:	
   854                           ; 1 bytes @ 0x4
   855                           
   856     0074                     ___flge@ff2:	
   857                           ; 2 bytes @ 0x4
   858                           
   859                           
   860                           ; 4 bytes @ 0x4
   861     0074                     	ds	1
   862     0075                     gpio_pin_initialize_direction@ret:
   863     0075                     ___awdiv@sign:	
   864                           ; 1 bytes @ 0x5
   865                           
   866     0075                     ___lbmod@rem:	
   867                           ; 1 bytes @ 0x5
   868                           
   869                           
   870                           ; 1 bytes @ 0x5
   871     0075                     	ds	1
   872     0076                     gpio_pin_initialize_direction@pin_config:
   873     0076                     gpio_pin_write_logic@ret:	
   874                           ; 1 bytes @ 0x6
   875                           
   876     0076                     gpio_pin_read_logic@ret:	
   877                           ; 1 bytes @ 0x6
   878                           
   879     0076                     ___awdiv@quotient:	
   880                           ; 1 bytes @ 0x6
   881                           
   882     0076                     __Umul8_16@word_mpld:	
   883                           ; 2 bytes @ 0x6
   884                           
   885                           
   886                           ; 2 bytes @ 0x6
   887     0076                     	ds	1
   888     0077                     gpio_pin_write_logic@pin_config:
   889     0077                     gpio_pin_read_logic@pin_config:	
   890                           ; 1 bytes @ 0x7
   891                           
   892                           
   893                           ; 1 bytes @ 0x7
   894     0077                     	ds	1
   895     0078                     ??_gpio_pin_initialize:
   896     0078                     ?_lcd_send_4bit:	
   897                           ; 1 bytes @ 0x8
   898                           
   899     0078                     ??_lcd_4bit_send_enable_signal:	
   900                           ; 1 bytes @ 0x8
   901                           
   902     0078                     ?_keypad_get_value:	
   903                           ; 1 bytes @ 0x8
   904                           
   905     0078                     ??___flge:	
   906                           ; 1 bytes @ 0x8
   907                           
   908     0078                     lcd_send_4bit@_data_command:	
   909                           ; 1 bytes @ 0x8
   910                           
   911     0078                     keypad_get_value@value:	
   912                           ; 1 bytes @ 0x8
   913                           
   914     0078                     ___fltol@sign1:	
   915                           ; 1 bytes @ 0x8
   916                           
   917     0078                     __Umul8_16@multiplier:	
   918                           ; 1 bytes @ 0x8
   919                           
   920                           
   921                           ; 1 bytes @ 0x8
   922     0078                     	ds	1
   923     0079                     ?_gpio_pin_initialize:
   924     0079                     ??_lcd_send_4bit:	
   925                           ; 1 bytes @ 0x9
   926                           
   927     0079                     ?_lcd_4bit_send_enable_signal:	
   928                           ; 1 bytes @ 0x9
   929                           
   930     0079                     ??_keypad_get_value:	
   931                           ; 1 bytes @ 0x9
   932                           
   933     0079                     lcd_4bit_send_enable_signal@ret:	
   934                           ; 1 bytes @ 0x9
   935                           
   936     0079                     ___fltol@exp1:	
   937                           ; 1 bytes @ 0x9
   938                           
   939                           
   940                           ; 1 bytes @ 0x9
   941     0079                     	ds	1
   942     007A                     ?___xxtofl:
   943     007A                     lcd_send_4bit@ret:	
   944                           ; 4 bytes @ 0xA
   945                           
   946     007A                     lcd_4bit_send_enable_signal@lcd:	
   947                           ; 1 bytes @ 0xA
   948                           
   949     007A                     gpio_pin_initialize@ret:	
   950                           ; 1 bytes @ 0xA
   951                           
   952     007A                     ___xxtofl@val:	
   953                           ; 1 bytes @ 0xA
   954                           
   955                           
   956                           ; 4 bytes @ 0xA
   957     007A                     	ds	1
   958     007B                     lcd_send_4bit@lcd:
   959     007B                     gpio_pin_initialize@pin_config:	
   960                           ; 1 bytes @ 0xB
   961                           
   962                           
   963                           ; 1 bytes @ 0xB
   964     007B                     	ds	1
   965     007C                     ??_lcd_4bit_send_command:
   966     007C                     ??_lcd_4bit_send_char_data:	
   967                           ; 1 bytes @ 0xC
   968                           
   969     007C                     ??_keypad_initialize:	
   970                           ; 1 bytes @ 0xC
   971                           
   972                           
   973                           ; 1 bytes @ 0xC
   974     007C                     	ds	1
   975     007D                     ??_lcd_4bit_send_char_data_pos:
   976     007D                     ??_lcd_4bit_send_string:	
   977                           ; 1 bytes @ 0xD
   978                           
   979     007D                     ??_lcd_4bit_send_string_pos:	
   980                           ; 1 bytes @ 0xD
   981                           
   982                           
   983                           ; 1 bytes @ 0xD
   984     007D                     	ds	1
   985     007E                     ??___flsub:
   986                           
   987                           	psect	cstackBANK0
   988     0020                     __pcstackBANK0:	
   989                           ; 1 bytes @ 0xE
   990                           
   991     0020                     ?_lcd_4bit_send_command:
   992     0020                     ?_lcd_4bit_send_char_data:	
   993                           ; 1 bytes @ 0x0
   994                           
   995     0020                     ?_keypad_initialize:	
   996                           ; 1 bytes @ 0x0
   997                           
   998     0020                     ??___xxtofl:	
   999                           ; 1 bytes @ 0x0
  1000                           
  1001     0020                     lcd_4bit_send_command@command:	
  1002                           ; 1 bytes @ 0x0
  1003                           
  1004     0020                     lcd_4bit_send_char_data@data:	
  1005                           ; 1 bytes @ 0x0
  1006                           
  1007     0020                     keypad_initialize@ret:	
  1008                           ; 1 bytes @ 0x0
  1009                           
  1010     0020                     keypad_get_value@ret:	
  1011                           ; 1 bytes @ 0x0
  1012                           
  1013                           
  1014                           ; 1 bytes @ 0x0
  1015     0020                     	ds	1
  1016     0021                     lcd_4bit_send_command@ret:
  1017     0021                     lcd_4bit_send_char_data@ret:	
  1018                           ; 1 bytes @ 0x1
  1019                           
  1020     0021                     keypad_initialize@row_counter:	
  1021                           ; 1 bytes @ 0x1
  1022                           
  1023     0021                     keypad_get_value@col_logic:	
  1024                           ; 1 bytes @ 0x1
  1025                           
  1026                           
  1027                           ; 1 bytes @ 0x1
  1028     0021                     	ds	1
  1029     0022                     lcd_4bit_send_command@lcd:
  1030     0022                     lcd_4bit_send_char_data@lcd:	
  1031                           ; 1 bytes @ 0x2
  1032                           
  1033     0022                     keypad_initialize@columns_counter:	
  1034                           ; 1 bytes @ 0x2
  1035                           
  1036     0022                     keypad_get_value@counter:	
  1037                           ; 1 bytes @ 0x2
  1038                           
  1039                           
  1040                           ; 1 bytes @ 0x2
  1041     0022                     	ds	1
  1042     0023                     ?_lcd_4bit_set_cursor:
  1043     0023                     ??_lcd_4bit_initialize:	
  1044                           ; 1 bytes @ 0x3
  1045                           
  1046     0023                     ?_lcd_4bit_send_string:	
  1047                           ; 1 bytes @ 0x3
  1048                           
  1049     0023                     lcd_4bit_send_string@str:	
  1050                           ; 1 bytes @ 0x3
  1051                           
  1052     0023                     lcd_4bit_set_cursor@row:	
  1053                           ; 1 bytes @ 0x3
  1054                           
  1055     0023                     keypad_initialize@keypad:	
  1056                           ; 1 bytes @ 0x3
  1057                           
  1058     0023                     keypad_get_value@row_counter:	
  1059                           ; 1 bytes @ 0x3
  1060                           
  1061                           
  1062                           ; 1 bytes @ 0x3
  1063     0023                     	ds	1
  1064     0024                     lcd_4bit_send_string@str_temp:
  1065     0024                     lcd_4bit_set_cursor@column:	
  1066                           ; 1 bytes @ 0x4
  1067                           
  1068     0024                     keypad_get_value@columns_counter:	
  1069                           ; 1 bytes @ 0x4
  1070                           
  1071     0024                     ___xxtofl@sign:	
  1072                           ; 1 bytes @ 0x4
  1073                           
  1074                           
  1075                           ; 1 bytes @ 0x4
  1076     0024                     	ds	1
  1077     0025                     ??_lcd_4bit_set_cursor:
  1078     0025                     ?_lcd_4bit_initialize:	
  1079                           ; 1 bytes @ 0x5
  1080                           
  1081     0025                     lcd_4bit_initialize@data_pins_counter:	
  1082                           ; 1 bytes @ 0x5
  1083                           
  1084     0025                     lcd_4bit_send_string@lcd:	
  1085                           ; 1 bytes @ 0x5
  1086                           
  1087     0025                     keypad_get_value@keypad:	
  1088                           ; 1 bytes @ 0x5
  1089                           
  1090     0025                     ___xxtofl@exp:	
  1091                           ; 1 bytes @ 0x5
  1092                           
  1093                           
  1094                           ; 1 bytes @ 0x5
  1095     0025                     	ds	1
  1096     0026                     lcd_4bit_initialize@ret:
  1097     0026                     ___xxtofl@arg:	
  1098                           ; 1 bytes @ 0x6
  1099                           
  1100                           
  1101                           ; 4 bytes @ 0x6
  1102     0026                     	ds	1
  1103     0027                     lcd_4bit_initialize@lcd:
  1104     0027                     lcd_4bit_set_cursor@ret:	
  1105                           ; 1 bytes @ 0x7
  1106                           
  1107                           
  1108                           ; 1 bytes @ 0x7
  1109     0027                     	ds	1
  1110     0028                     lcd_4bit_set_cursor@lcd:
  1111                           
  1112                           ; 1 bytes @ 0x8
  1113     0028                     	ds	1
  1114     0029                     ?_lcd_4bit_send_char_data_pos:
  1115     0029                     ?_lcd_4bit_send_string_pos:	
  1116                           ; 1 bytes @ 0x9
  1117                           
  1118     0029                     lcd_4bit_send_char_data_pos@row:	
  1119                           ; 1 bytes @ 0x9
  1120                           
  1121     0029                     lcd_4bit_send_string_pos@row:	
  1122                           ; 1 bytes @ 0x9
  1123                           
  1124                           
  1125                           ; 1 bytes @ 0x9
  1126     0029                     	ds	1
  1127     002A                     ?___fladd:
  1128     002A                     ?___fldiv:	
  1129                           ; 4 bytes @ 0xA
  1130                           
  1131     002A                     ?___flmul:	
  1132                           ; 4 bytes @ 0xA
  1133                           
  1134     002A                     lcd_4bit_send_char_data_pos@column:	
  1135                           ; 4 bytes @ 0xA
  1136                           
  1137     002A                     lcd_4bit_send_string_pos@column:	
  1138                           ; 1 bytes @ 0xA
  1139                           
  1140     002A                     ___fladd@b:	
  1141                           ; 1 bytes @ 0xA
  1142                           
  1143     002A                     ___fldiv@a:	
  1144                           ; 4 bytes @ 0xA
  1145                           
  1146     002A                     ___flmul@b:	
  1147                           ; 4 bytes @ 0xA
  1148                           
  1149                           
  1150                           ; 4 bytes @ 0xA
  1151     002A                     	ds	1
  1152     002B                     lcd_4bit_send_char_data_pos@data:
  1153     002B                     lcd_4bit_send_string_pos@str:	
  1154                           ; 1 bytes @ 0xB
  1155                           
  1156                           
  1157                           ; 2 bytes @ 0xB
  1158     002B                     	ds	1
  1159     002C                     lcd_4bit_send_char_data_pos@ret:
  1160                           
  1161                           ; 1 bytes @ 0xC
  1162     002C                     	ds	1
  1163     002D                     lcd_4bit_send_char_data_pos@lcd:
  1164     002D                     lcd_4bit_send_string_pos@str_temp:	
  1165                           ; 1 bytes @ 0xD
  1166                           
  1167                           
  1168                           ; 2 bytes @ 0xD
  1169     002D                     	ds	1
  1170     002E                     ___fladd@a:
  1171     002E                     ___fldiv@b:	
  1172                           ; 4 bytes @ 0xE
  1173                           
  1174     002E                     ___flmul@a:	
  1175                           ; 4 bytes @ 0xE
  1176                           
  1177                           
  1178                           ; 4 bytes @ 0xE
  1179     002E                     	ds	1
  1180     002F                     lcd_4bit_send_string_pos@lcd:
  1181                           
  1182                           ; 1 bytes @ 0xF
  1183     002F                     	ds	3
  1184     0032                     ??___fladd:
  1185     0032                     ??___fldiv:	
  1186                           ; 1 bytes @ 0x12
  1187                           
  1188     0032                     ??___flmul:	
  1189                           ; 1 bytes @ 0x12
  1190                           
  1191                           
  1192                           ; 1 bytes @ 0x12
  1193     0032                     	ds	5
  1194     0037                     ___flmul@sign:
  1195     0037                     ___fldiv@rem:	
  1196                           ; 1 bytes @ 0x17
  1197                           
  1198                           
  1199                           ; 4 bytes @ 0x17
  1200     0037                     	ds	1
  1201     0038                     ___flmul@aexp:
  1202                           
  1203                           ; 1 bytes @ 0x18
  1204     0038                     	ds	1
  1205     0039                     ___flmul@grs:
  1206                           
  1207                           ; 4 bytes @ 0x19
  1208     0039                     	ds	1
  1209     003A                     ___fladd@signs:
  1210                           
  1211                           ; 1 bytes @ 0x1A
  1212     003A                     	ds	1
  1213     003B                     ___fladd@aexp:
  1214     003B                     ___fldiv@sign:	
  1215                           ; 1 bytes @ 0x1B
  1216                           
  1217                           
  1218                           ; 1 bytes @ 0x1B
  1219     003B                     	ds	1
  1220     003C                     ___fladd@bexp:
  1221     003C                     ___fldiv@new_exp:	
  1222                           ; 1 bytes @ 0x1C
  1223                           
  1224                           
  1225                           ; 2 bytes @ 0x1C
  1226     003C                     	ds	1
  1227     003D                     ___fladd@grs:
  1228     003D                     ___flmul@bexp:	
  1229                           ; 1 bytes @ 0x1D
  1230                           
  1231                           
  1232                           ; 1 bytes @ 0x1D
  1233     003D                     	ds	1
  1234     003E                     ?___flsub:
  1235     003E                     ___flsub@a:	
  1236                           ; 4 bytes @ 0x1E
  1237                           
  1238     003E                     ___fldiv@grs:	
  1239                           ; 4 bytes @ 0x1E
  1240                           
  1241     003E                     ___flmul@prod:	
  1242                           ; 4 bytes @ 0x1E
  1243                           
  1244                           
  1245                           ; 4 bytes @ 0x1E
  1246     003E                     	ds	4
  1247     0042                     ___fldiv@bexp:
  1248     0042                     ___flmul@temp:	
  1249                           ; 1 bytes @ 0x22
  1250                           
  1251     0042                     ___flsub@b:	
  1252                           ; 2 bytes @ 0x22
  1253                           
  1254                           
  1255                           ; 4 bytes @ 0x22
  1256     0042                     	ds	1
  1257     0043                     ___fldiv@aexp:
  1258                           
  1259                           ; 1 bytes @ 0x23
  1260     0043                     	ds	3
  1261     0046                     ?_convert_float_to_string:
  1262     0046                     convert_float_to_string@num:	
  1263                           ; 1 bytes @ 0x26
  1264                           
  1265                           
  1266                           ; 4 bytes @ 0x26
  1267     0046                     	ds	4
  1268     004A                     convert_float_to_string@str:
  1269                           
  1270                           ; 1 bytes @ 0x2A
  1271     004A                     	ds	1
  1272     004B                     ??_convert_float_to_string:
  1273                           
  1274                           ; 1 bytes @ 0x2B
  1275     004B                     	ds	4
  1276     004F                     convert_float_to_string@findone:
  1277                           
  1278                           ; 1 bytes @ 0x2F
  1279     004F                     	ds	1
  1280     0050                     convert_float_to_string@integer_part:
  1281                           
  1282                           ; 1 bytes @ 0x30
  1283     0050                     	ds	1
  1284     0051                     convert_float_to_string@i:
  1285                           
  1286                           ; 1 bytes @ 0x31
  1287     0051                     	ds	1
  1288     0052                     convert_float_to_string@fractional_part:
  1289                           
  1290                           ; 4 bytes @ 0x32
  1291     0052                     	ds	4
  1292     0056                     convert_float_to_string@temp:
  1293                           
  1294                           ; 1 bytes @ 0x36
  1295     0056                     	ds	1
  1296     0057                     convert_float_to_string@ch:
  1297                           
  1298                           ; 1 bytes @ 0x37
  1299     0057                     	ds	1
  1300     0058                     convert_float_to_string@index:
  1301                           
  1302                           ; 1 bytes @ 0x38
  1303     0058                     	ds	1
  1304     0059                     ??_main:
  1305                           
  1306                           ; 1 bytes @ 0x39
  1307     0059                     	ds	3
  1308                           
  1309                           	psect	maintext
  1310     004B                     __pmaintext:	
  1311 ;;
  1312 ;;Main: autosize = 0, tempsize = 3, incstack = 0, save=0
  1313 ;;
  1314 ;; *************** function _main *****************
  1315 ;; Defined at:
  1316 ;;		line 18 in file "application.c"
  1317 ;; Parameters:    Size  Location     Type
  1318 ;;		None
  1319 ;; Auto vars:     Size  Location     Type
  1320 ;;		None
  1321 ;; Return value:  Size  Location     Type
  1322 ;;                  2  403[None  ] int 
  1323 ;; Registers used:
  1324 ;;		wreg, fsr0l, fsr0h, status,2, status,0, btemp+1, pclath, cstack
  1325 ;; Tracked objects:
  1326 ;;		On entry : B00/0
  1327 ;;		On exit  : 0/0
  1328 ;;		Unchanged: 0/0
  1329 ;; Data sizes:     COMMON   BANK0   BANK1   BANK3   BANK2
  1330 ;;      Params:         0       0       0       0       0
  1331 ;;      Locals:         0       0       0       0       0
  1332 ;;      Temps:          0       3       0       0       0
  1333 ;;      Totals:         0       3       0       0       0
  1334 ;;Total ram usage:        3 bytes
  1335 ;; Hardware stack levels required when called: 5
  1336 ;; This function calls:
  1337 ;;		___fladd
  1338 ;;		___fldiv
  1339 ;;		___flmul
  1340 ;;		___flsub
  1341 ;;		___xxtofl
  1342 ;;		_convert_float_to_string
  1343 ;;		_keypad_get_value
  1344 ;;		_keypad_initialize
  1345 ;;		_lcd_4bit_initialize
  1346 ;;		_lcd_4bit_send_char_data_pos
  1347 ;;		_lcd_4bit_send_command
  1348 ;;		_lcd_4bit_send_string
  1349 ;;		_lcd_4bit_send_string_pos
  1350 ;; This function is called by:
  1351 ;;		Startup code after reset
  1352 ;; This function uses a non-reentrant model
  1353 ;;
  1354                           
  1355     004B                     _main:	
  1356                           ;psect for function _main
  1357                           
  1358     004B                     l5635:	
  1359                           ;incstack = 0
  1360                           ; Regs used in _main: [wreg-fsr0h+status,2+status,0+btemp+1+pclath+cstack]
  1361                           
  1362                           
  1363                           ;application.c: 19:     keypad_initialize(&keypad1);
  1364     004B  30B4               	movlw	(low (_keypad1| 0))& (0+255)
  1365     004C  160A  118A  2633  120A  118A  	fcall	_keypad_initialize
  1366                           
  1367                           ;application.c: 20:     lcd_4bit_initialize(&lcd1);
  1368     0051  306A               	movlw	(low (_lcd1| 0))& (0+255)
  1369     0052  120A  158A  23BB  120A  118A  	fcall	_lcd_4bit_initialize
  1370                           
  1371                           ;application.c: 22:     lcd_4bit_send_string(&lcd1, "Welcome");
  1372     0057  3011               	movlw	(low ((STR_1-__stringbase)| (0+32768)))& (0+255)
  1373     0058  1283               	bcf	3,5	;RP0=0, select bank0
  1374     0059  1303               	bcf	3,6	;RP1=0, select bank0
  1375     005A  00A3               	movwf	lcd_4bit_send_string@str
  1376     005B  306A               	movlw	(low (_lcd1| 0))& (0+255)
  1377     005C  160A  118A  2594  120A  118A  	fcall	_lcd_4bit_send_string
  1378     0061                     l5637:
  1379                           
  1380                           ;application.c: 23:     _delay((unsigned long)((1000)*(8000000/4000.0)));
  1381     0061  300B               	movlw	11
  1382     0062  1283               	bcf	3,5	;RP0=0, select bank0
  1383     0063  1303               	bcf	3,6	;RP1=0, select bank0
  1384     0064  00DB               	movwf	??_main+2
  1385     0065  3026               	movlw	38
  1386     0066  00DA               	movwf	??_main+1
  1387     0067  305D               	movlw	93
  1388     0068  00D9               	movwf	??_main
  1389     0069                     u7707:
  1390     0069  0BD9               	decfsz	??_main,f
  1391     006A  2869               	goto	u7707
  1392     006B  0BDA               	decfsz	??_main+1,f
  1393     006C  2869               	goto	u7707
  1394     006D  0BDB               	decfsz	??_main+2,f
  1395     006E  2869               	goto	u7707
  1396     006F                     l5639:
  1397                           
  1398                           ;application.c: 24:     lcd_4bit_send_command(&lcd1, 0x01);
  1399     006F  1283               	bcf	3,5	;RP0=0, select bank0
  1400     0070  1303               	bcf	3,6	;RP1=0, select bank0
  1401     0071  01A0               	clrf	lcd_4bit_send_command@command
  1402     0072  0AA0               	incf	lcd_4bit_send_command@command,f
  1403     0073  306A               	movlw	(low (_lcd1| 0))& (0+255)
  1404     0074  160A  118A  26BA  120A  118A  	fcall	_lcd_4bit_send_command
  1405     0079                     l5641:
  1406                           
  1407                           ;application.c: 27:     {;application.c: 29:         keypad_get_value(&keypad1, &key_val
      +                          ue);
  1408     0079  3069               	movlw	(low (_key_value| 0))& (0+255)
  1409     007A  00F8               	movwf	keypad_get_value@value
  1410     007B  30B4               	movlw	(low (_keypad1| 0))& (0+255)
  1411     007C  120A  158A  2161  120A  118A  	fcall	_keypad_get_value
  1412     0081                     l5643:
  1413                           
  1414                           ;application.c: 30:         if(key_value != 0)
  1415     0081  1283               	bcf	3,5	;RP0=0, select bank0
  1416     0082  1303               	bcf	3,6	;RP1=0, select bank0
  1417     0083  0869               	movf	_key_value,w
  1418     0084  1903               	btfsc	3,2
  1419     0085  2887               	goto	u7661
  1420     0086  2888               	goto	u7660
  1421     0087                     u7661:
  1422     0087  28C5               	goto	l5663
  1423     0088                     u7660:
  1424     0088                     l5645:
  1425                           
  1426                           ;application.c: 31:         {;application.c: 33:             if('#' == key_value)
  1427     0088  3023               	movlw	35
  1428     0089  0669               	xorwf	_key_value,w
  1429     008A  1D03               	btfss	3,2
  1430     008B  288D               	goto	u7671
  1431     008C  288E               	goto	u7670
  1432     008D                     u7671:
  1433     008D  289B               	goto	l5653
  1434     008E                     u7670:
  1435     008E                     l5647:
  1436                           
  1437                           ;application.c: 34:             {;application.c: 35:                 lcd_4bit_send_comma
      +                          nd(&lcd1, 0x01);
  1438     008E  01A0               	clrf	lcd_4bit_send_command@command
  1439     008F  0AA0               	incf	lcd_4bit_send_command@command,f
  1440     0090  306A               	movlw	(low (_lcd1| 0))& (0+255)
  1441     0091  160A  118A  26BA  120A  118A  	fcall	_lcd_4bit_send_command
  1442     0096                     l5649:
  1443                           
  1444                           ;application.c: 36:                 counter = 0;
  1445     0096  1283               	bcf	3,5	;RP0=0, select bank0
  1446     0097  1303               	bcf	3,6	;RP1=0, select bank0
  1447     0098  01E4               	clrf	_counter
  1448     0099                     l5651:
  1449                           
  1450                           ;application.c: 37:                 error_flag = 0;
  1451     0099  01E3               	clrf	_error_flag
  1452                           
  1453                           ;application.c: 38:             }
  1454     009A  28B4               	goto	l5659
  1455     009B                     l5653:
  1456                           
  1457                           ;application.c: 40:             {;application.c: 41:                 lcd_4bit_send_char_
      +                          data_pos(&lcd1, 1, (2*counter)+1, key_value);
  1458     009B  01A9               	clrf	lcd_4bit_send_char_data_pos@row
  1459     009C  0AA9               	incf	lcd_4bit_send_char_data_pos@row,f
  1460     009D  1403               	setc
  1461     009E  0D64               	rlf	_counter,w
  1462     009F  00AA               	movwf	lcd_4bit_send_char_data_pos@column
  1463     00A0  0869               	movf	_key_value,w
  1464     00A1  00AB               	movwf	lcd_4bit_send_char_data_pos@data
  1465     00A2  306A               	movlw	(low (_lcd1| 0))& (0+255)
  1466     00A3  160A  118A  27A6  120A  118A  	fcall	_lcd_4bit_send_char_data_pos
  1467     00A8                     l5655:
  1468                           
  1469                           ;application.c: 42:                 exp[counter++] = key_value;
  1470     00A8  1283               	bcf	3,5	;RP0=0, select bank0
  1471     00A9  1303               	bcf	3,6	;RP1=0, select bank0
  1472     00AA  0864               	movf	_counter,w
  1473     00AB  3E60               	addlw	(low (_exp| 0))& (0+255)
  1474     00AC  0084               	movwf	4
  1475     00AD  0869               	movf	_key_value,w
  1476     00AE  1383               	bcf	3,7	;select IRP bank0
  1477     00AF  0080               	movwf	0
  1478     00B0                     l5657:
  1479     00B0  3001               	movlw	1
  1480     00B1  00FF               	movwf	btemp+1
  1481     00B2  087F               	movf	btemp+1,w
  1482     00B3  07E4               	addwf	_counter,f
  1483     00B4                     l5659:
  1484                           
  1485                           ;application.c: 44:             _delay((unsigned long)((250)*(8000000/4000.0)));
  1486     00B4  3003               	movlw	3
  1487     00B5  1283               	bcf	3,5	;RP0=0, select bank0
  1488     00B6  1303               	bcf	3,6	;RP1=0, select bank0
  1489     00B7  00DB               	movwf	??_main+2
  1490     00B8  308A               	movlw	138
  1491     00B9  00DA               	movwf	??_main+1
  1492     00BA  3055               	movlw	85
  1493     00BB  00D9               	movwf	??_main
  1494     00BC                     u7717:
  1495     00BC  0BD9               	decfsz	??_main,f
  1496     00BD  28BC               	goto	u7717
  1497     00BE  0BDA               	decfsz	??_main+1,f
  1498     00BF  28BC               	goto	u7717
  1499     00C0  0BDB               	decfsz	??_main+2,f
  1500     00C1  28BC               	goto	u7717
  1501     00C2                     l5661:
  1502                           
  1503                           ;application.c: 45:             key_value = 0;
  1504     00C2  1283               	bcf	3,5	;RP0=0, select bank0
  1505     00C3  1303               	bcf	3,6	;RP1=0, select bank0
  1506     00C4  01E9               	clrf	_key_value
  1507     00C5                     l5663:
  1508                           
  1509                           ;application.c: 48:         if(3 == counter)
  1510     00C5  3003               	movlw	3
  1511     00C6  0664               	xorwf	_counter,w
  1512     00C7  1D03               	btfss	3,2
  1513     00C8  28CA               	goto	u7681
  1514     00C9  28CB               	goto	u7680
  1515     00CA                     u7681:
  1516     00CA  2879               	goto	l5641
  1517     00CB                     u7680:
  1518     00CB                     l5665:
  1519                           
  1520                           ;application.c: 49:         {;application.c: 50:             counter = 0;
  1521     00CB  01E4               	clrf	_counter
  1522                           
  1523                           ;application.c: 51:              switch(exp[1])
  1524     00CC  29E8               	goto	l5679
  1525     00CD                     l5667:
  1526     00CD  0862               	movf	_exp+2,w
  1527     00CE  3ED0               	addlw	208
  1528     00CF  00FA               	movwf	___xxtofl@val
  1529     00D0  30FF               	movlw	255
  1530     00D1  1803               	skipnc
  1531     00D2  3000               	movlw	0
  1532     00D3  00FB               	movwf	___xxtofl@val+1
  1533     00D4  01FC               	clrf	___xxtofl@val+2
  1534     00D5  01FD               	clrf	___xxtofl@val+3
  1535     00D6  3000               	movlw	0
  1536     00D7  120A  158A  2301  120A  118A  	fcall	___xxtofl
  1537     00DC  087D               	movf	?___xxtofl+3,w
  1538     00DD  1283               	bcf	3,5	;RP0=0, select bank0
  1539     00DE  1303               	bcf	3,6	;RP1=0, select bank0
  1540     00DF  00AD               	movwf	___fladd@b+3
  1541     00E0  087C               	movf	?___xxtofl+2,w
  1542     00E1  00AC               	movwf	___fladd@b+2
  1543     00E2  087B               	movf	?___xxtofl+1,w
  1544     00E3  00AB               	movwf	___fladd@b+1
  1545     00E4  087A               	movf	?___xxtofl,w
  1546     00E5  00AA               	movwf	___fladd@b
  1547     00E6  0860               	movf	_exp,w
  1548     00E7  3ED0               	addlw	208
  1549     00E8  00FA               	movwf	___xxtofl@val
  1550     00E9  30FF               	movlw	255
  1551     00EA  1803               	skipnc
  1552     00EB  3000               	movlw	0
  1553     00EC  00FB               	movwf	___xxtofl@val+1
  1554     00ED  01FC               	clrf	___xxtofl@val+2
  1555     00EE  01FD               	clrf	___xxtofl@val+3
  1556     00EF  3000               	movlw	0
  1557     00F0  120A  158A  2301  120A  118A  	fcall	___xxtofl
  1558     00F5  087D               	movf	?___xxtofl+3,w
  1559     00F6  1283               	bcf	3,5	;RP0=0, select bank0
  1560     00F7  1303               	bcf	3,6	;RP1=0, select bank0
  1561     00F8  00B1               	movwf	___fladd@a+3
  1562     00F9  087C               	movf	?___xxtofl+2,w
  1563     00FA  00B0               	movwf	___fladd@a+2
  1564     00FB  087B               	movf	?___xxtofl+1,w
  1565     00FC  00AF               	movwf	___fladd@a+1
  1566     00FD  087A               	movf	?___xxtofl,w
  1567     00FE  00AE               	movwf	___fladd@a
  1568     00FF  120A  118A  2234  120A  118A  	fcall	___fladd
  1569     0104  1283               	bcf	3,5	;RP0=0, select bank0
  1570     0105  1303               	bcf	3,6	;RP1=0, select bank0
  1571     0106  082D               	movf	?___fladd+3,w
  1572     0107  00DF               	movwf	_res+3
  1573     0108  082C               	movf	?___fladd+2,w
  1574     0109  00DE               	movwf	_res+2
  1575     010A  082B               	movf	?___fladd+1,w
  1576     010B  00DD               	movwf	_res+1
  1577     010C  082A               	movf	?___fladd,w
  1578     010D  00DC               	movwf	_res
  1579     010E  29FE               	goto	l5681
  1580     010F                     l5669:
  1581     010F  0862               	movf	_exp+2,w
  1582     0110  3ED0               	addlw	208
  1583     0111  00FA               	movwf	___xxtofl@val
  1584     0112  30FF               	movlw	255
  1585     0113  1803               	skipnc
  1586     0114  3000               	movlw	0
  1587     0115  00FB               	movwf	___xxtofl@val+1
  1588     0116  01FC               	clrf	___xxtofl@val+2
  1589     0117  01FD               	clrf	___xxtofl@val+3
  1590     0118  3000               	movlw	0
  1591     0119  120A  158A  2301  120A  118A  	fcall	___xxtofl
  1592     011E  087D               	movf	?___xxtofl+3,w
  1593     011F  1283               	bcf	3,5	;RP0=0, select bank0
  1594     0120  1303               	bcf	3,6	;RP1=0, select bank0
  1595     0121  00C1               	movwf	___flsub@a+3
  1596     0122  087C               	movf	?___xxtofl+2,w
  1597     0123  00C0               	movwf	___flsub@a+2
  1598     0124  087B               	movf	?___xxtofl+1,w
  1599     0125  00BF               	movwf	___flsub@a+1
  1600     0126  087A               	movf	?___xxtofl,w
  1601     0127  00BE               	movwf	___flsub@a
  1602     0128  0860               	movf	_exp,w
  1603     0129  3ED0               	addlw	208
  1604     012A  00FA               	movwf	___xxtofl@val
  1605     012B  30FF               	movlw	255
  1606     012C  1803               	skipnc
  1607     012D  3000               	movlw	0
  1608     012E  00FB               	movwf	___xxtofl@val+1
  1609     012F  01FC               	clrf	___xxtofl@val+2
  1610     0130  01FD               	clrf	___xxtofl@val+3
  1611     0131  3000               	movlw	0
  1612     0132  120A  158A  2301  120A  118A  	fcall	___xxtofl
  1613     0137  087D               	movf	?___xxtofl+3,w
  1614     0138  1283               	bcf	3,5	;RP0=0, select bank0
  1615     0139  1303               	bcf	3,6	;RP1=0, select bank0
  1616     013A  00C5               	movwf	___flsub@b+3
  1617     013B  087C               	movf	?___xxtofl+2,w
  1618     013C  00C4               	movwf	___flsub@b+2
  1619     013D  087B               	movf	?___xxtofl+1,w
  1620     013E  00C3               	movwf	___flsub@b+1
  1621     013F  087A               	movf	?___xxtofl,w
  1622     0140  00C2               	movwf	___flsub@b
  1623     0141  160A  118A  2520  120A  118A  	fcall	___flsub
  1624     0146  1283               	bcf	3,5	;RP0=0, select bank0
  1625     0147  1303               	bcf	3,6	;RP1=0, select bank0
  1626     0148  0841               	movf	?___flsub+3,w
  1627     0149  00DF               	movwf	_res+3
  1628     014A  0840               	movf	?___flsub+2,w
  1629     014B  00DE               	movwf	_res+2
  1630     014C  083F               	movf	?___flsub+1,w
  1631     014D  00DD               	movwf	_res+1
  1632     014E  083E               	movf	?___flsub,w
  1633     014F  00DC               	movwf	_res
  1634     0150  29FE               	goto	l5681
  1635     0151                     l5671:
  1636     0151  0862               	movf	_exp+2,w
  1637     0152  3ED0               	addlw	208
  1638     0153  00FA               	movwf	___xxtofl@val
  1639     0154  30FF               	movlw	255
  1640     0155  1803               	skipnc
  1641     0156  3000               	movlw	0
  1642     0157  00FB               	movwf	___xxtofl@val+1
  1643     0158  01FC               	clrf	___xxtofl@val+2
  1644     0159  01FD               	clrf	___xxtofl@val+3
  1645     015A  3000               	movlw	0
  1646     015B  120A  158A  2301  120A  118A  	fcall	___xxtofl
  1647     0160  087D               	movf	?___xxtofl+3,w
  1648     0161  1283               	bcf	3,5	;RP0=0, select bank0
  1649     0162  1303               	bcf	3,6	;RP1=0, select bank0
  1650     0163  00AD               	movwf	___flmul@b+3
  1651     0164  087C               	movf	?___xxtofl+2,w
  1652     0165  00AC               	movwf	___flmul@b+2
  1653     0166  087B               	movf	?___xxtofl+1,w
  1654     0167  00AB               	movwf	___flmul@b+1
  1655     0168  087A               	movf	?___xxtofl,w
  1656     0169  00AA               	movwf	___flmul@b
  1657     016A  0860               	movf	_exp,w
  1658     016B  3ED0               	addlw	208
  1659     016C  00FA               	movwf	___xxtofl@val
  1660     016D  30FF               	movlw	255
  1661     016E  1803               	skipnc
  1662     016F  3000               	movlw	0
  1663     0170  00FB               	movwf	___xxtofl@val+1
  1664     0171  01FC               	clrf	___xxtofl@val+2
  1665     0172  01FD               	clrf	___xxtofl@val+3
  1666     0173  3000               	movlw	0
  1667     0174  120A  158A  2301  120A  118A  	fcall	___xxtofl
  1668     0179  087D               	movf	?___xxtofl+3,w
  1669     017A  1283               	bcf	3,5	;RP0=0, select bank0
  1670     017B  1303               	bcf	3,6	;RP1=0, select bank0
  1671     017C  00B1               	movwf	___flmul@a+3
  1672     017D  087C               	movf	?___xxtofl+2,w
  1673     017E  00B0               	movwf	___flmul@a+2
  1674     017F  087B               	movf	?___xxtofl+1,w
  1675     0180  00AF               	movwf	___flmul@a+1
  1676     0181  087A               	movf	?___xxtofl,w
  1677     0182  00AE               	movwf	___flmul@a
  1678     0183  120A  118A  248C  120A  118A  	fcall	___flmul
  1679     0188  1283               	bcf	3,5	;RP0=0, select bank0
  1680     0189  1303               	bcf	3,6	;RP1=0, select bank0
  1681     018A  082D               	movf	?___flmul+3,w
  1682     018B  00DF               	movwf	_res+3
  1683     018C  082C               	movf	?___flmul+2,w
  1684     018D  00DE               	movwf	_res+2
  1685     018E  082B               	movf	?___flmul+1,w
  1686     018F  00DD               	movwf	_res+1
  1687     0190  082A               	movf	?___flmul,w
  1688     0191  00DC               	movwf	_res
  1689     0192  29FE               	goto	l5681
  1690     0193                     l5673:
  1691     0193  0862               	movf	_exp+2,w
  1692     0194  3ED0               	addlw	208
  1693     0195  00FA               	movwf	___xxtofl@val
  1694     0196  30FF               	movlw	255
  1695     0197  1803               	skipnc
  1696     0198  3000               	movlw	0
  1697     0199  00FB               	movwf	___xxtofl@val+1
  1698     019A  01FC               	clrf	___xxtofl@val+2
  1699     019B  01FD               	clrf	___xxtofl@val+3
  1700     019C  3000               	movlw	0
  1701     019D  120A  158A  2301  120A  118A  	fcall	___xxtofl
  1702     01A2  087D               	movf	?___xxtofl+3,w
  1703     01A3  1283               	bcf	3,5	;RP0=0, select bank0
  1704     01A4  1303               	bcf	3,6	;RP1=0, select bank0
  1705     01A5  00AD               	movwf	___fldiv@a+3
  1706     01A6  087C               	movf	?___xxtofl+2,w
  1707     01A7  00AC               	movwf	___fldiv@a+2
  1708     01A8  087B               	movf	?___xxtofl+1,w
  1709     01A9  00AB               	movwf	___fldiv@a+1
  1710     01AA  087A               	movf	?___xxtofl,w
  1711     01AB  00AA               	movwf	___fldiv@a
  1712     01AC  0860               	movf	_exp,w
  1713     01AD  3ED0               	addlw	208
  1714     01AE  00FA               	movwf	___xxtofl@val
  1715     01AF  30FF               	movlw	255
  1716     01B0  1803               	skipnc
  1717     01B1  3000               	movlw	0
  1718     01B2  00FB               	movwf	___xxtofl@val+1
  1719     01B3  01FC               	clrf	___xxtofl@val+2
  1720     01B4  01FD               	clrf	___xxtofl@val+3
  1721     01B5  3000               	movlw	0
  1722     01B6  120A  158A  2301  120A  118A  	fcall	___xxtofl
  1723     01BB  087D               	movf	?___xxtofl+3,w
  1724     01BC  1283               	bcf	3,5	;RP0=0, select bank0
  1725     01BD  1303               	bcf	3,6	;RP1=0, select bank0
  1726     01BE  00B1               	movwf	___fldiv@b+3
  1727     01BF  087C               	movf	?___xxtofl+2,w
  1728     01C0  00B0               	movwf	___fldiv@b+2
  1729     01C1  087B               	movf	?___xxtofl+1,w
  1730     01C2  00AF               	movwf	___fldiv@b+1
  1731     01C3  087A               	movf	?___xxtofl,w
  1732     01C4  00AE               	movwf	___fldiv@b
  1733     01C5  120A  158A  2631  120A  118A  	fcall	___fldiv
  1734     01CA  1283               	bcf	3,5	;RP0=0, select bank0
  1735     01CB  1303               	bcf	3,6	;RP1=0, select bank0
  1736     01CC  082D               	movf	?___fldiv+3,w
  1737     01CD  00DF               	movwf	_res+3
  1738     01CE  082C               	movf	?___fldiv+2,w
  1739     01CF  00DE               	movwf	_res+2
  1740     01D0  082B               	movf	?___fldiv+1,w
  1741     01D1  00DD               	movwf	_res+1
  1742     01D2  082A               	movf	?___fldiv,w
  1743     01D3  00DC               	movwf	_res
  1744     01D4  29FE               	goto	l5681
  1745     01D5                     l5675:
  1746     01D5  01A9               	clrf	lcd_4bit_send_string_pos@row
  1747     01D6  0AA9               	incf	lcd_4bit_send_string_pos@row,f
  1748     01D7  01AA               	clrf	lcd_4bit_send_string_pos@column
  1749     01D8  0AAA               	incf	lcd_4bit_send_string_pos@column,f
  1750     01D9  3019               	movlw	(low ((STR_2-__stringbase)| (0+32768)))& (0+255)
  1751     01DA  00AB               	movwf	lcd_4bit_send_string_pos@str
  1752     01DB  3080               	movlw	128
  1753     01DC  00AC               	movwf	lcd_4bit_send_string_pos@str+1
  1754     01DD  306A               	movlw	(low (_lcd1| 0))& (0+255)
  1755     01DE  120A  118A  2004  120A  118A  	fcall	_lcd_4bit_send_string_pos
  1756     01E3                     l5677:
  1757     01E3  1283               	bcf	3,5	;RP0=0, select bank0
  1758     01E4  1303               	bcf	3,6	;RP1=0, select bank0
  1759     01E5  01E3               	clrf	_error_flag
  1760     01E6  0AE3               	incf	_error_flag,f
  1761                           
  1762                           ;application.c: 59:             }
  1763     01E7  29FE               	goto	l5681
  1764     01E8                     l5679:
  1765     01E8  0861               	movf	_exp+1,w
  1766     01E9  00D9               	movwf	??_main
  1767     01EA  01DA               	clrf	??_main+1
  1768                           
  1769                           ; Switch on 2 bytes has been partitioned into a top level switch of size 1, and 1 sub-sw
      +                          itches
  1770                           ; Switch size 1, requested type "simple"
  1771                           ; Number of cases is 1, Range of values is 0 to 0
  1772                           ; switch strategies available:
  1773                           ; Name         Instructions Cycles
  1774                           ; simple_byte            4     3 (average)
  1775                           ; direct_byte           11     8 (fixed)
  1776                           ; jumptable            260     6 (fixed)
  1777                           ;	Chosen strategy is simple_byte
  1778     01EB  085A               	movf	??_main+1,w
  1779     01EC  3A00               	xorlw	0	; case 0
  1780     01ED  1903               	skipnz
  1781     01EE  29F0               	goto	l5769
  1782     01EF  29D5               	goto	l5675
  1783     01F0                     l5769:
  1784                           
  1785                           ; Switch size 1, requested type "simple"
  1786                           ; Number of cases is 4, Range of values is 42 to 47
  1787                           ; switch strategies available:
  1788                           ; Name         Instructions Cycles
  1789                           ; simple_byte           13     7 (average)
  1790                           ; direct_byte           29    11 (fixed)
  1791                           ; jumptable            263     9 (fixed)
  1792                           ;	Chosen strategy is simple_byte
  1793     01F0  0859               	movf	??_main,w
  1794     01F1  3A2A               	xorlw	42	; case 42
  1795     01F2  1903               	skipnz
  1796     01F3  2951               	goto	l5671
  1797     01F4  3A01               	xorlw	1	; case 43
  1798     01F5  1903               	skipnz
  1799     01F6  28CD               	goto	l5667
  1800     01F7  3A06               	xorlw	6	; case 45
  1801     01F8  1903               	skipnz
  1802     01F9  290F               	goto	l5669
  1803     01FA  3A02               	xorlw	2	; case 47
  1804     01FB  1903               	skipnz
  1805     01FC  2993               	goto	l5673
  1806     01FD  29D5               	goto	l5675
  1807     01FE                     l5681:
  1808                           
  1809                           ;application.c: 60:              if(0 == error_flag)
  1810     01FE  0863               	movf	_error_flag,w
  1811     01FF  1D03               	btfss	3,2
  1812     0200  2A02               	goto	u7691
  1813     0201  2A03               	goto	u7690
  1814     0202                     u7691:
  1815     0202  2879               	goto	l5641
  1816     0203                     u7690:
  1817     0203                     l5683:
  1818                           
  1819                           ;application.c: 61:              {;application.c: 62:                  lcd_4bit_send_cha
      +                          r_data_pos(&lcd1, 2, 1, '=');
  1820     0203  3002               	movlw	2
  1821     0204  00A9               	movwf	lcd_4bit_send_char_data_pos@row
  1822     0205  01AA               	clrf	lcd_4bit_send_char_data_pos@column
  1823     0206  0AAA               	incf	lcd_4bit_send_char_data_pos@column,f
  1824     0207  303D               	movlw	61
  1825     0208  00AB               	movwf	lcd_4bit_send_char_data_pos@data
  1826     0209  306A               	movlw	(low (_lcd1| 0))& (0+255)
  1827     020A  160A  118A  27A6  120A  118A  	fcall	_lcd_4bit_send_char_data_pos
  1828                           
  1829                           ;application.c: 63:                  convert_float_to_string(res, res_str);
  1830     020F  1283               	bcf	3,5	;RP0=0, select bank0
  1831     0210  1303               	bcf	3,6	;RP1=0, select bank0
  1832     0211  085F               	movf	_res+3,w
  1833     0212  00C9               	movwf	convert_float_to_string@num+3
  1834     0213  085E               	movf	_res+2,w
  1835     0214  00C8               	movwf	convert_float_to_string@num+2
  1836     0215  085D               	movf	_res+1,w
  1837     0216  00C7               	movwf	convert_float_to_string@num+1
  1838     0217  085C               	movf	_res,w
  1839     0218  00C6               	movwf	convert_float_to_string@num
  1840     0219  30BC               	movlw	(low (_res_str| 0))& (0+255)
  1841     021A  00CA               	movwf	convert_float_to_string@str
  1842     021B  120A  158A  2488  120A  118A  	fcall	_convert_float_to_string
  1843                           
  1844                           ;application.c: 64:                  lcd_4bit_send_string_pos(&lcd1, 2, 3, res_str);
  1845     0220  3002               	movlw	2
  1846     0221  1283               	bcf	3,5	;RP0=0, select bank0
  1847     0222  1303               	bcf	3,6	;RP1=0, select bank0
  1848     0223  00A9               	movwf	lcd_4bit_send_string_pos@row
  1849     0224  3003               	movlw	3
  1850     0225  00AA               	movwf	lcd_4bit_send_string_pos@column
  1851     0226  30BC               	movlw	(low (_res_str| 0))& (0+255)
  1852     0227  00AB               	movwf	lcd_4bit_send_string_pos@str
  1853     0228  3000               	movlw	0
  1854     0229  00AC               	movwf	lcd_4bit_send_string_pos@str+1
  1855     022A  306A               	movlw	(low (_lcd1| 0))& (0+255)
  1856     022B  120A  118A  2004  120A  118A  	fcall	_lcd_4bit_send_string_pos
  1857     0230  2879               	goto	l5641
  1858     0231  120A  118A  2800   	ljmp	start
  1859     0234                     __end_of_main:
  1860                           
  1861                           	psect	text1
  1862     0004                     __ptext1:	
  1863 ;; *************** function _lcd_4bit_send_string_pos *****************
  1864 ;; Defined at:
  1865 ;;		line 115 in file "ECU/Chr_LCD/ecu_chr_lcd.c"
  1866 ;; Parameters:    Size  Location     Type
  1867 ;;  lcd             1    wreg     PTR const struct .
  1868 ;;		 -> lcd1(6), 
  1869 ;;  row             1    9[BANK0 ] unsigned char 
  1870 ;;  column          1   10[BANK0 ] unsigned char 
  1871 ;;  str             2   11[BANK0 ] PTR unsigned char 
  1872 ;;		 -> res_str(11), STR_2(6), 
  1873 ;; Auto vars:     Size  Location     Type
  1874 ;;  lcd             1   15[BANK0 ] PTR const struct .
  1875 ;;		 -> lcd1(6), 
  1876 ;;  str_temp        2   13[BANK0 ] PTR unsigned char 
  1877 ;;		 -> res_str(11), STR_2(6), 
  1878 ;;  ret             1    0        unsigned char 
  1879 ;; Return value:  Size  Location     Type
  1880 ;;                  1    wreg      unsigned char 
  1881 ;; Registers used:
  1882 ;;		wreg, fsr0l, fsr0h, status,2, status,0, btemp+1, pclath, cstack
  1883 ;; Tracked objects:
  1884 ;;		On entry : 0/0
  1885 ;;		On exit  : 0/0
  1886 ;;		Unchanged: 0/0
  1887 ;; Data sizes:     COMMON   BANK0   BANK1   BANK3   BANK2
  1888 ;;      Params:         0       4       0       0       0
  1889 ;;      Locals:         0       3       0       0       0
  1890 ;;      Temps:          0       0       0       0       0
  1891 ;;      Totals:         0       7       0       0       0
  1892 ;;Total ram usage:        7 bytes
  1893 ;; Hardware stack levels used: 1
  1894 ;; Hardware stack levels required when called: 4
  1895 ;; This function calls:
  1896 ;;		_lcd_4bit_send_char_data
  1897 ;;		_lcd_4bit_set_cursor
  1898 ;; This function is called by:
  1899 ;;		_main
  1900 ;; This function uses a non-reentrant model
  1901 ;;
  1902                           
  1903     0004                     _lcd_4bit_send_string_pos:	
  1904                           ;psect for function _lcd_4bit_send_string_pos
  1905                           
  1906                           
  1907                           ;incstack = 0
  1908                           ; Regs used in _lcd_4bit_send_string_pos: [wreg-fsr0h+status,2+status,0+btemp+1+pclath+c
      +                          stack]
  1909                           ;lcd_4bit_send_string_pos@lcd stored from wreg
  1910     0004  1283               	bcf	3,5	;RP0=0, select bank0
  1911     0005  1303               	bcf	3,6	;RP1=0, select bank0
  1912     0006  00AF               	movwf	lcd_4bit_send_string_pos@lcd
  1913     0007                     l5087:
  1914     0007                     l5089:
  1915                           
  1916                           ;ECU/Chr_LCD/ecu_chr_lcd.c: 119:    uint8* str_temp = str;
  1917     0007  082B               	movf	lcd_4bit_send_string_pos@str,w
  1918     0008  00AD               	movwf	lcd_4bit_send_string_pos@str_temp
  1919     0009  082C               	movf	lcd_4bit_send_string_pos@str+1,w
  1920     000A  00AE               	movwf	lcd_4bit_send_string_pos@str_temp+1
  1921     000B                     l5091:
  1922                           
  1923                           ;ECU/Chr_LCD/ecu_chr_lcd.c: 120:    if((((void*)0) == lcd)||(((void*)0) == str))
  1924     000B  082F               	movf	lcd_4bit_send_string_pos@lcd,w
  1925     000C  1903               	btfsc	3,2
  1926     000D  280F               	goto	u6951
  1927     000E  2810               	goto	u6950
  1928     000F                     u6951:
  1929     000F  2816               	goto	l5095
  1930     0010                     u6950:
  1931     0010                     l5093:
  1932     0010  082B               	movf	lcd_4bit_send_string_pos@str,w
  1933     0011  042C               	iorwf	lcd_4bit_send_string_pos@str+1,w
  1934     0012  1D03               	btfss	3,2
  1935     0013  2815               	goto	u6961
  1936     0014  2816               	goto	u6960
  1937     0015                     u6961:
  1938     0015  2817               	goto	l5097
  1939     0016                     u6960:
  1940     0016                     l5095:
  1941                           
  1942                           ;ECU/Chr_LCD/ecu_chr_lcd.c: 123:    }
  1943     0016  284A               	goto	l62
  1944     0017                     l5097:
  1945     0017  0829               	movf	lcd_4bit_send_string_pos@row,w
  1946     0018  00A3               	movwf	lcd_4bit_set_cursor@row
  1947     0019  082A               	movf	lcd_4bit_send_string_pos@column,w
  1948     001A  00A4               	movwf	lcd_4bit_set_cursor@column
  1949     001B  082F               	movf	lcd_4bit_send_string_pos@lcd,w
  1950     001C  160A  118A  25F9  120A  118A  	fcall	_lcd_4bit_set_cursor
  1951                           
  1952                           ;ECU/Chr_LCD/ecu_chr_lcd.c: 127:        while(*str_temp)
  1953     0021  283A               	goto	l5103
  1954     0022                     l5099:
  1955     0022  082E               	movf	lcd_4bit_send_string_pos@str_temp+1,w
  1956     0023  00FF               	movwf	btemp+1
  1957     0024  082D               	movf	lcd_4bit_send_string_pos@str_temp,w
  1958     0025  0084               	movwf	4
  1959     0026  160A  118A  2000  120A  118A  	fcall	stringtab
  1960     002B  00A0               	movwf	lcd_4bit_send_char_data@data
  1961     002C  082F               	movf	lcd_4bit_send_string_pos@lcd,w
  1962     002D  160A  118A  2757  120A  118A  	fcall	_lcd_4bit_send_char_data
  1963     0032                     l5101:
  1964     0032  3001               	movlw	1
  1965     0033  1283               	bcf	3,5	;RP0=0, select bank0
  1966     0034  1303               	bcf	3,6	;RP1=0, select bank0
  1967     0035  07AD               	addwf	lcd_4bit_send_string_pos@str_temp,f
  1968     0036  1803               	skipnc
  1969     0037  0AAE               	incf	lcd_4bit_send_string_pos@str_temp+1,f
  1970     0038  3000               	movlw	0
  1971     0039  07AE               	addwf	lcd_4bit_send_string_pos@str_temp+1,f
  1972     003A                     l5103:
  1973                           
  1974                           ;ECU/Chr_LCD/ecu_chr_lcd.c: 127:        while(*str_temp)
  1975     003A  1283               	bcf	3,5	;RP0=0, select bank0
  1976     003B  1303               	bcf	3,6	;RP1=0, select bank0
  1977     003C  082E               	movf	lcd_4bit_send_string_pos@str_temp+1,w
  1978     003D  00FF               	movwf	btemp+1
  1979     003E  082D               	movf	lcd_4bit_send_string_pos@str_temp,w
  1980     003F  0084               	movwf	4
  1981     0040  160A  118A  2000  120A  118A  	fcall	stringtab
  1982     0045  3A00               	xorlw	0
  1983     0046  1D03               	skipz
  1984     0047  2849               	goto	u6971
  1985     0048  284A               	goto	u6970
  1986     0049                     u6971:
  1987     0049  2822               	goto	l5099
  1988     004A                     u6970:
  1989     004A                     l62:
  1990     004A  0008               	return
  1991     004B                     __end_of_lcd_4bit_send_string_pos:
  1992                           
  1993                           	psect	text2
  1994     1594                     __ptext2:	
  1995 ;; *************** function _lcd_4bit_send_string *****************
  1996 ;; Defined at:
  1997 ;;		line 97 in file "ECU/Chr_LCD/ecu_chr_lcd.c"
  1998 ;; Parameters:    Size  Location     Type
  1999 ;;  lcd             1    wreg     PTR const struct .
  2000 ;;		 -> lcd1(6), 
  2001 ;;  str             1    3[BANK0 ] PTR unsigned char 
  2002 ;;		 -> STR_1(8), 
  2003 ;; Auto vars:     Size  Location     Type
  2004 ;;  lcd             1    5[BANK0 ] PTR const struct .
  2005 ;;		 -> lcd1(6), 
  2006 ;;  str_temp        1    4[BANK0 ] PTR unsigned char 
  2007 ;;		 -> STR_1(8), 
  2008 ;;  ret             1    0        unsigned char 
  2009 ;; Return value:  Size  Location     Type
  2010 ;;                  1    wreg      unsigned char 
  2011 ;; Registers used:
  2012 ;;		wreg, fsr0l, fsr0h, status,2, status,0, btemp+1, pclath, cstack
  2013 ;; Tracked objects:
  2014 ;;		On entry : 0/0
  2015 ;;		On exit  : 0/0
  2016 ;;		Unchanged: 0/0
  2017 ;; Data sizes:     COMMON   BANK0   BANK1   BANK3   BANK2
  2018 ;;      Params:         0       1       0       0       0
  2019 ;;      Locals:         0       2       0       0       0
  2020 ;;      Temps:          0       0       0       0       0
  2021 ;;      Totals:         0       3       0       0       0
  2022 ;;Total ram usage:        3 bytes
  2023 ;; Hardware stack levels used: 1
  2024 ;; Hardware stack levels required when called: 3
  2025 ;; This function calls:
  2026 ;;		_lcd_4bit_send_char_data
  2027 ;; This function is called by:
  2028 ;;		_main
  2029 ;; This function uses a non-reentrant model
  2030 ;;
  2031                           
  2032     1594                     _lcd_4bit_send_string:	
  2033                           ;psect for function _lcd_4bit_send_string
  2034                           
  2035                           
  2036                           ;incstack = 0
  2037                           ; Regs used in _lcd_4bit_send_string: [wreg-fsr0h+status,2+status,0+btemp+1+pclath+cstac
      +                          k]
  2038                           ;lcd_4bit_send_string@lcd stored from wreg
  2039     1594  1283               	bcf	3,5	;RP0=0, select bank0
  2040     1595  1303               	bcf	3,6	;RP1=0, select bank0
  2041     1596  00A5               	movwf	lcd_4bit_send_string@lcd
  2042     1597                     l5071:
  2043     1597                     l5073:
  2044                           
  2045                           ;ECU/Chr_LCD/ecu_chr_lcd.c: 100:    uint8* str_temp = str;
  2046     1597  0823               	movf	lcd_4bit_send_string@str,w
  2047     1598  00A4               	movwf	lcd_4bit_send_string@str_temp
  2048     1599                     l5075:
  2049                           
  2050                           ;ECU/Chr_LCD/ecu_chr_lcd.c: 101:    if((((void*)0) == lcd)||(((void*)0) == str))
  2051     1599  0825               	movf	lcd_4bit_send_string@lcd,w
  2052     159A  1903               	btfsc	3,2
  2053     159B  2D9D               	goto	u6921
  2054     159C  2D9E               	goto	u6920
  2055     159D                     u6921:
  2056     159D  2DA3               	goto	l5079
  2057     159E                     u6920:
  2058     159E                     l5077:
  2059     159E  0823               	movf	lcd_4bit_send_string@str,w
  2060     159F  1D03               	btfss	3,2
  2061     15A0  2DA2               	goto	u6931
  2062     15A1  2DA3               	goto	u6930
  2063     15A2                     u6931:
  2064     15A2  2DB8               	goto	l5085
  2065     15A3                     u6930:
  2066     15A3                     l5079:
  2067                           
  2068                           ;ECU/Chr_LCD/ecu_chr_lcd.c: 104:    }
  2069     15A3  2DC4               	goto	l52
  2070     15A4                     l5081:
  2071     15A4  0824               	movf	lcd_4bit_send_string@str_temp,w
  2072     15A5  0084               	movwf	4
  2073     15A6  160A  118A  200A  160A  118A  	fcall	stringdir
  2074     15AB  00A0               	movwf	lcd_4bit_send_char_data@data
  2075     15AC  0825               	movf	lcd_4bit_send_string@lcd,w
  2076     15AD  160A  118A  2757  160A  118A  	fcall	_lcd_4bit_send_char_data
  2077     15B2                     l5083:
  2078     15B2  3001               	movlw	1
  2079     15B3  00FF               	movwf	btemp+1
  2080     15B4  087F               	movf	btemp+1,w
  2081     15B5  1283               	bcf	3,5	;RP0=0, select bank0
  2082     15B6  1303               	bcf	3,6	;RP1=0, select bank0
  2083     15B7  07A4               	addwf	lcd_4bit_send_string@str_temp,f
  2084     15B8                     l5085:
  2085                           
  2086                           ;ECU/Chr_LCD/ecu_chr_lcd.c: 107:        while(*str_temp)
  2087     15B8  0824               	movf	lcd_4bit_send_string@str_temp,w
  2088     15B9  0084               	movwf	4
  2089     15BA  160A  118A  200A  160A  118A  	fcall	stringdir
  2090     15BF  3A00               	xorlw	0
  2091     15C0  1D03               	skipz
  2092     15C1  2DC3               	goto	u6941
  2093     15C2  2DC4               	goto	u6940
  2094     15C3                     u6941:
  2095     15C3  2DA4               	goto	l5081
  2096     15C4                     u6940:
  2097     15C4                     l52:
  2098     15C4  0008               	return
  2099     15C5                     __end_of_lcd_4bit_send_string:
  2100                           
  2101                           	psect	text3
  2102     1757                     __ptext3:	
  2103 ;; *************** function _lcd_4bit_send_char_data *****************
  2104 ;; Defined at:
  2105 ;;		line 59 in file "ECU/Chr_LCD/ecu_chr_lcd.c"
  2106 ;; Parameters:    Size  Location     Type
  2107 ;;  lcd             1    wreg     PTR const struct .
  2108 ;;		 -> lcd1(6), 
  2109 ;;  data            1    0[BANK0 ] unsigned char 
  2110 ;; Auto vars:     Size  Location     Type
  2111 ;;  lcd             1    2[BANK0 ] PTR const struct .
  2112 ;;		 -> lcd1(6), 
  2113 ;;  ret             1    1[BANK0 ] unsigned char 
  2114 ;; Return value:  Size  Location     Type
  2115 ;;                  1    wreg      unsigned char 
  2116 ;; Registers used:
  2117 ;;		wreg, fsr0l, fsr0h, status,2, status,0, btemp+1, pclath, cstack
  2118 ;; Tracked objects:
  2119 ;;		On entry : 0/0
  2120 ;;		On exit  : 0/0
  2121 ;;		Unchanged: 0/0
  2122 ;; Data sizes:     COMMON   BANK0   BANK1   BANK3   BANK2
  2123 ;;      Params:         0       1       0       0       0
  2124 ;;      Locals:         0       2       0       0       0
  2125 ;;      Temps:          1       0       0       0       0
  2126 ;;      Totals:         1       3       0       0       0
  2127 ;;Total ram usage:        4 bytes
  2128 ;; Hardware stack levels used: 1
  2129 ;; Hardware stack levels required when called: 2
  2130 ;; This function calls:
  2131 ;;		_gpio_pin_write_logic
  2132 ;;		_lcd_4bit_send_enable_signal
  2133 ;;		_lcd_send_4bit
  2134 ;; This function is called by:
  2135 ;;		_lcd_4bit_send_string
  2136 ;;		_lcd_4bit_send_string_pos
  2137 ;; This function uses a non-reentrant model
  2138 ;;
  2139                           
  2140     1757                     _lcd_4bit_send_char_data:	
  2141                           ;psect for function _lcd_4bit_send_char_data
  2142                           
  2143                           
  2144                           ;incstack = 0
  2145                           ; Regs used in _lcd_4bit_send_char_data: [wreg-fsr0h+status,2+status,0+btemp+1+pclath+cs
      +                          tack]
  2146                           ;lcd_4bit_send_char_data@lcd stored from wreg
  2147     1757  1283               	bcf	3,5	;RP0=0, select bank0
  2148     1758  1303               	bcf	3,6	;RP1=0, select bank0
  2149     1759  00A2               	movwf	lcd_4bit_send_char_data@lcd
  2150     175A                     l4583:
  2151     175A                     l4585:
  2152                           
  2153                           ;ECU/Chr_LCD/ecu_chr_lcd.c: 62:    if(((void*)0) == lcd)
  2154     175A  0822               	movf	lcd_4bit_send_char_data@lcd,w
  2155     175B  1D03               	btfss	3,2
  2156     175C  2F5E               	goto	u5921
  2157     175D  2F5F               	goto	u5920
  2158     175E                     u5921:
  2159     175E  2F61               	goto	l4589
  2160     175F                     u5920:
  2161     175F                     l4587:
  2162                           
  2163                           ;ECU/Chr_LCD/ecu_chr_lcd.c: 63:    {;ECU/Chr_LCD/ecu_chr_lcd.c: 64:        ret = (std_Re
      +                          turnType)0x00;
  2164     175F  01A1               	clrf	lcd_4bit_send_char_data@ret
  2165                           
  2166                           ;ECU/Chr_LCD/ecu_chr_lcd.c: 65:    }
  2167     1760  2FA4               	goto	l4591
  2168     1761                     l4589:
  2169                           
  2170                           ;ECU/Chr_LCD/ecu_chr_lcd.c: 67:    {;ECU/Chr_LCD/ecu_chr_lcd.c: 68:        ret = gpio_pi
      +                          n_write_logic(&(lcd->lcd_rs), GPIO_HIGH);
  2171     1761  01F0               	clrf	gpio_pin_write_logic@logic
  2172     1762  0AF0               	incf	gpio_pin_write_logic@logic,f
  2173     1763  0822               	movf	lcd_4bit_send_char_data@lcd,w
  2174     1764  120A  158A  20E6  160A  118A  	fcall	_gpio_pin_write_logic
  2175     1769  1283               	bcf	3,5	;RP0=0, select bank0
  2176     176A  1303               	bcf	3,6	;RP1=0, select bank0
  2177     176B  00A1               	movwf	lcd_4bit_send_char_data@ret
  2178                           
  2179                           ;ECU/Chr_LCD/ecu_chr_lcd.c: 69:        ret &= lcd_send_4bit(lcd, (data >> 4));
  2180     176C  0820               	movf	lcd_4bit_send_char_data@data,w
  2181     176D  00FC               	movwf	??_lcd_4bit_send_char_data
  2182     176E  3004               	movlw	4
  2183     176F                     u5935:
  2184     176F  1003               	clrc
  2185     1770  0CFC               	rrf	??_lcd_4bit_send_char_data,f
  2186     1771  3EFF               	addlw	-1
  2187     1772  1D03               	skipz
  2188     1773  2F6F               	goto	u5935
  2189     1774  087C               	movf	??_lcd_4bit_send_char_data,w
  2190     1775  00F8               	movwf	lcd_send_4bit@_data_command
  2191     1776  0822               	movf	lcd_4bit_send_char_data@lcd,w
  2192     1777  160A  118A  2708  160A  118A  	fcall	_lcd_send_4bit
  2193     177C  00FF               	movwf	btemp+1
  2194     177D  087F               	movf	btemp+1,w
  2195     177E  1283               	bcf	3,5	;RP0=0, select bank0
  2196     177F  1303               	bcf	3,6	;RP1=0, select bank0
  2197     1780  05A1               	andwf	lcd_4bit_send_char_data@ret,f
  2198                           
  2199                           ;ECU/Chr_LCD/ecu_chr_lcd.c: 70:        ret &= lcd_4bit_send_enable_signal(lcd);
  2200     1781  0822               	movf	lcd_4bit_send_char_data@lcd,w
  2201     1782  160A  118A  24FD  160A  118A  	fcall	_lcd_4bit_send_enable_signal
  2202     1787  00FF               	movwf	btemp+1
  2203     1788  087F               	movf	btemp+1,w
  2204     1789  1283               	bcf	3,5	;RP0=0, select bank0
  2205     178A  1303               	bcf	3,6	;RP1=0, select bank0
  2206     178B  05A1               	andwf	lcd_4bit_send_char_data@ret,f
  2207                           
  2208                           ;ECU/Chr_LCD/ecu_chr_lcd.c: 71:        ret &= lcd_send_4bit(lcd, data);
  2209     178C  0820               	movf	lcd_4bit_send_char_data@data,w
  2210     178D  00F8               	movwf	lcd_send_4bit@_data_command
  2211     178E  0822               	movf	lcd_4bit_send_char_data@lcd,w
  2212     178F  160A  118A  2708  160A  118A  	fcall	_lcd_send_4bit
  2213     1794  00FF               	movwf	btemp+1
  2214     1795  087F               	movf	btemp+1,w
  2215     1796  1283               	bcf	3,5	;RP0=0, select bank0
  2216     1797  1303               	bcf	3,6	;RP1=0, select bank0
  2217     1798  05A1               	andwf	lcd_4bit_send_char_data@ret,f
  2218                           
  2219                           ;ECU/Chr_LCD/ecu_chr_lcd.c: 72:        ret &= lcd_4bit_send_enable_signal(lcd);
  2220     1799  0822               	movf	lcd_4bit_send_char_data@lcd,w
  2221     179A  160A  118A  24FD  160A  118A  	fcall	_lcd_4bit_send_enable_signal
  2222     179F  00FF               	movwf	btemp+1
  2223     17A0  087F               	movf	btemp+1,w
  2224     17A1  1283               	bcf	3,5	;RP0=0, select bank0
  2225     17A2  1303               	bcf	3,6	;RP1=0, select bank0
  2226     17A3  05A1               	andwf	lcd_4bit_send_char_data@ret,f
  2227     17A4                     l4591:
  2228                           
  2229                           ;ECU/Chr_LCD/ecu_chr_lcd.c: 74:    return ret;
  2230     17A4  0821               	movf	lcd_4bit_send_char_data@ret,w
  2231     17A5                     l37:
  2232     17A5  0008               	return
  2233     17A6                     __end_of_lcd_4bit_send_char_data:
  2234                           
  2235                           	psect	text4
  2236     17A6                     __ptext4:	
  2237 ;; *************** function _lcd_4bit_send_char_data_pos *****************
  2238 ;; Defined at:
  2239 ;;		line 77 in file "ECU/Chr_LCD/ecu_chr_lcd.c"
  2240 ;; Parameters:    Size  Location     Type
  2241 ;;  lcd             1    wreg     PTR const struct .
  2242 ;;		 -> lcd1(6), 
  2243 ;;  row             1    9[BANK0 ] unsigned char 
  2244 ;;  column          1   10[BANK0 ] unsigned char 
  2245 ;;  data            1   11[BANK0 ] unsigned char 
  2246 ;; Auto vars:     Size  Location     Type
  2247 ;;  lcd             1   13[BANK0 ] PTR const struct .
  2248 ;;		 -> lcd1(6), 
  2249 ;;  ret             1   12[BANK0 ] unsigned char 
  2250 ;; Return value:  Size  Location     Type
  2251 ;;                  1    wreg      unsigned char 
  2252 ;; Registers used:
  2253 ;;		wreg, fsr0l, fsr0h, status,2, status,0, btemp+1, pclath, cstack
  2254 ;; Tracked objects:
  2255 ;;		On entry : 0/0
  2256 ;;		On exit  : 0/0
  2257 ;;		Unchanged: 0/0
  2258 ;; Data sizes:     COMMON   BANK0   BANK1   BANK3   BANK2
  2259 ;;      Params:         0       3       0       0       0
  2260 ;;      Locals:         0       2       0       0       0
  2261 ;;      Temps:          1       0       0       0       0
  2262 ;;      Totals:         1       5       0       0       0
  2263 ;;Total ram usage:        6 bytes
  2264 ;; Hardware stack levels used: 1
  2265 ;; Hardware stack levels required when called: 4
  2266 ;; This function calls:
  2267 ;;		_gpio_pin_write_logic
  2268 ;;		_lcd_4bit_send_enable_signal
  2269 ;;		_lcd_4bit_set_cursor
  2270 ;;		_lcd_send_4bit
  2271 ;; This function is called by:
  2272 ;;		_main
  2273 ;; This function uses a non-reentrant model
  2274 ;;
  2275                           
  2276     17A6                     _lcd_4bit_send_char_data_pos:	
  2277                           ;psect for function _lcd_4bit_send_char_data_pos
  2278                           
  2279                           
  2280                           ;incstack = 0
  2281                           ; Regs used in _lcd_4bit_send_char_data_pos: [wreg-fsr0h+status,2+status,0+btemp+1+pclat
      +                          h+cstack]
  2282                           ;lcd_4bit_send_char_data_pos@lcd stored from wreg
  2283     17A6  1283               	bcf	3,5	;RP0=0, select bank0
  2284     17A7  1303               	bcf	3,6	;RP1=0, select bank0
  2285     17A8  00AD               	movwf	lcd_4bit_send_char_data_pos@lcd
  2286     17A9                     l5061:
  2287     17A9                     l5063:
  2288                           
  2289                           ;ECU/Chr_LCD/ecu_chr_lcd.c: 81:    if(((void*)0) == lcd)
  2290     17A9  082D               	movf	lcd_4bit_send_char_data_pos@lcd,w
  2291     17AA  1D03               	btfss	3,2
  2292     17AB  2FAD               	goto	u6901
  2293     17AC  2FAE               	goto	u6900
  2294     17AD                     u6901:
  2295     17AD  2FAF               	goto	l5067
  2296     17AE                     u6900:
  2297     17AE                     l5065:
  2298                           
  2299                           ;ECU/Chr_LCD/ecu_chr_lcd.c: 84:    }
  2300     17AE  2FFF               	goto	l42
  2301     17AF                     l5067:
  2302                           
  2303                           ;ECU/Chr_LCD/ecu_chr_lcd.c: 86:    {;ECU/Chr_LCD/ecu_chr_lcd.c: 87:        ret = lcd_4bi
      +                          t_set_cursor(lcd, row, column);
  2304     17AF  0829               	movf	lcd_4bit_send_char_data_pos@row,w
  2305     17B0  00A3               	movwf	lcd_4bit_set_cursor@row
  2306     17B1  082A               	movf	lcd_4bit_send_char_data_pos@column,w
  2307     17B2  00A4               	movwf	lcd_4bit_set_cursor@column
  2308     17B3  082D               	movf	lcd_4bit_send_char_data_pos@lcd,w
  2309     17B4  160A  118A  25F9  160A  118A  	fcall	_lcd_4bit_set_cursor
  2310     17B9  1283               	bcf	3,5	;RP0=0, select bank0
  2311     17BA  1303               	bcf	3,6	;RP1=0, select bank0
  2312     17BB  00AC               	movwf	lcd_4bit_send_char_data_pos@ret
  2313                           
  2314                           ;ECU/Chr_LCD/ecu_chr_lcd.c: 88:        ret = gpio_pin_write_logic(&(lcd->lcd_rs), GPIO_H
      +                          IGH);
  2315     17BC  01F0               	clrf	gpio_pin_write_logic@logic
  2316     17BD  0AF0               	incf	gpio_pin_write_logic@logic,f
  2317     17BE  082D               	movf	lcd_4bit_send_char_data_pos@lcd,w
  2318     17BF  120A  158A  20E6  160A  118A  	fcall	_gpio_pin_write_logic
  2319     17C4  1283               	bcf	3,5	;RP0=0, select bank0
  2320     17C5  1303               	bcf	3,6	;RP1=0, select bank0
  2321     17C6  00AC               	movwf	lcd_4bit_send_char_data_pos@ret
  2322                           
  2323                           ;ECU/Chr_LCD/ecu_chr_lcd.c: 89:        ret &= lcd_send_4bit(lcd, (data >> 4));
  2324     17C7  082B               	movf	lcd_4bit_send_char_data_pos@data,w
  2325     17C8  00FD               	movwf	??_lcd_4bit_send_char_data_pos
  2326     17C9  3004               	movlw	4
  2327     17CA                     u6915:
  2328     17CA  1003               	clrc
  2329     17CB  0CFD               	rrf	??_lcd_4bit_send_char_data_pos,f
  2330     17CC  3EFF               	addlw	-1
  2331     17CD  1D03               	skipz
  2332     17CE  2FCA               	goto	u6915
  2333     17CF  087D               	movf	??_lcd_4bit_send_char_data_pos,w
  2334     17D0  00F8               	movwf	lcd_send_4bit@_data_command
  2335     17D1  082D               	movf	lcd_4bit_send_char_data_pos@lcd,w
  2336     17D2  160A  118A  2708  160A  118A  	fcall	_lcd_send_4bit
  2337     17D7  00FF               	movwf	btemp+1
  2338     17D8  087F               	movf	btemp+1,w
  2339     17D9  1283               	bcf	3,5	;RP0=0, select bank0
  2340     17DA  1303               	bcf	3,6	;RP1=0, select bank0
  2341     17DB  05AC               	andwf	lcd_4bit_send_char_data_pos@ret,f
  2342                           
  2343                           ;ECU/Chr_LCD/ecu_chr_lcd.c: 90:        ret &= lcd_4bit_send_enable_signal(lcd);
  2344     17DC  082D               	movf	lcd_4bit_send_char_data_pos@lcd,w
  2345     17DD  160A  118A  24FD  160A  118A  	fcall	_lcd_4bit_send_enable_signal
  2346     17E2  00FF               	movwf	btemp+1
  2347     17E3  087F               	movf	btemp+1,w
  2348     17E4  1283               	bcf	3,5	;RP0=0, select bank0
  2349     17E5  1303               	bcf	3,6	;RP1=0, select bank0
  2350     17E6  05AC               	andwf	lcd_4bit_send_char_data_pos@ret,f
  2351                           
  2352                           ;ECU/Chr_LCD/ecu_chr_lcd.c: 91:        ret &= lcd_send_4bit(lcd, data);
  2353     17E7  082B               	movf	lcd_4bit_send_char_data_pos@data,w
  2354     17E8  00F8               	movwf	lcd_send_4bit@_data_command
  2355     17E9  082D               	movf	lcd_4bit_send_char_data_pos@lcd,w
  2356     17EA  160A  118A  2708  160A  118A  	fcall	_lcd_send_4bit
  2357     17EF  00FF               	movwf	btemp+1
  2358     17F0  087F               	movf	btemp+1,w
  2359     17F1  1283               	bcf	3,5	;RP0=0, select bank0
  2360     17F2  1303               	bcf	3,6	;RP1=0, select bank0
  2361     17F3  05AC               	andwf	lcd_4bit_send_char_data_pos@ret,f
  2362                           
  2363                           ;ECU/Chr_LCD/ecu_chr_lcd.c: 92:        ret &= lcd_4bit_send_enable_signal(lcd);
  2364     17F4  082D               	movf	lcd_4bit_send_char_data_pos@lcd,w
  2365     17F5  160A  118A  24FD  160A  118A  	fcall	_lcd_4bit_send_enable_signal
  2366     17FA  00FF               	movwf	btemp+1
  2367     17FB  087F               	movf	btemp+1,w
  2368     17FC  1283               	bcf	3,5	;RP0=0, select bank0
  2369     17FD  1303               	bcf	3,6	;RP1=0, select bank0
  2370     17FE  05AC               	andwf	lcd_4bit_send_char_data_pos@ret,f
  2371     17FF                     l42:
  2372     17FF  0008               	return
  2373     1800                     __end_of_lcd_4bit_send_char_data_pos:
  2374                           
  2375                           	psect	text5
  2376     15F9                     __ptext5:	
  2377 ;; *************** function _lcd_4bit_set_cursor *****************
  2378 ;; Defined at:
  2379 ;;		line 494 in file "ECU/Chr_LCD/ecu_chr_lcd.c"
  2380 ;; Parameters:    Size  Location     Type
  2381 ;;  lcd             1    wreg     PTR const struct .
  2382 ;;		 -> lcd1(6), 
  2383 ;;  row             1    3[BANK0 ] unsigned char 
  2384 ;;  column          1    4[BANK0 ] unsigned char 
  2385 ;; Auto vars:     Size  Location     Type
  2386 ;;  lcd             1    8[BANK0 ] PTR const struct .
  2387 ;;		 -> lcd1(6), 
  2388 ;;  ret             1    7[BANK0 ] unsigned char 
  2389 ;; Return value:  Size  Location     Type
  2390 ;;                  1    wreg      unsigned char 
  2391 ;; Registers used:
  2392 ;;		wreg, fsr0l, fsr0h, status,2, status,0, btemp+1, pclath, cstack
  2393 ;; Tracked objects:
  2394 ;;		On entry : 0/0
  2395 ;;		On exit  : 0/0
  2396 ;;		Unchanged: 0/0
  2397 ;; Data sizes:     COMMON   BANK0   BANK1   BANK3   BANK2
  2398 ;;      Params:         0       2       0       0       0
  2399 ;;      Locals:         0       2       0       0       0
  2400 ;;      Temps:          0       2       0       0       0
  2401 ;;      Totals:         0       6       0       0       0
  2402 ;;Total ram usage:        6 bytes
  2403 ;; Hardware stack levels used: 1
  2404 ;; Hardware stack levels required when called: 3
  2405 ;; This function calls:
  2406 ;;		_lcd_4bit_send_command
  2407 ;; This function is called by:
  2408 ;;		_lcd_4bit_send_char_data_pos
  2409 ;;		_lcd_4bit_send_string_pos
  2410 ;; This function uses a non-reentrant model
  2411 ;;
  2412                           
  2413     15F9                     _lcd_4bit_set_cursor:	
  2414                           ;psect for function _lcd_4bit_set_cursor
  2415                           
  2416                           
  2417                           ;incstack = 0
  2418                           ; Regs used in _lcd_4bit_set_cursor: [wreg-fsr0h+status,2+status,0+btemp+1+pclath+cstack
      +                          ]
  2419                           ;lcd_4bit_set_cursor@lcd stored from wreg
  2420     15F9  1283               	bcf	3,5	;RP0=0, select bank0
  2421     15FA  1303               	bcf	3,6	;RP1=0, select bank0
  2422     15FB  00A8               	movwf	lcd_4bit_set_cursor@lcd
  2423     15FC                     l4595:
  2424                           
  2425                           ;ECU/Chr_LCD/ecu_chr_lcd.c: 494: static std_ReturnType lcd_4bit_set_cursor(const chr_lcd
      +                          _4bit_t* lcd, uint8 row, uint8 column);ECU/Chr_LCD/ecu_chr_lcd.c: 495: {;ECU/Chr_LCD/ecu
      +                          _chr_lcd.c: 496:    std_ReturnType ret = (std_ReturnType)0x00;
  2426     15FC  01A7               	clrf	lcd_4bit_set_cursor@ret
  2427     15FD                     l4597:
  2428                           
  2429                           ;ECU/Chr_LCD/ecu_chr_lcd.c: 497:    if(((void*)0) == lcd)
  2430     15FD  0828               	movf	lcd_4bit_set_cursor@lcd,w
  2431     15FE  1D03               	btfss	3,2
  2432     15FF  2E01               	goto	u5941
  2433     1600  2E02               	goto	u5940
  2434     1601                     u5941:
  2435     1601  2E04               	goto	l4601
  2436     1602                     u5940:
  2437     1602                     l4599:
  2438                           
  2439                           ;ECU/Chr_LCD/ecu_chr_lcd.c: 498:    {;ECU/Chr_LCD/ecu_chr_lcd.c: 499:        ret = (std_
      +                          ReturnType)0x00;
  2440     1602  01A7               	clrf	lcd_4bit_set_cursor@ret
  2441                           
  2442                           ;ECU/Chr_LCD/ecu_chr_lcd.c: 500:    }
  2443     1603  2E31               	goto	l4611
  2444     1604                     l4601:
  2445                           
  2446                           ;ECU/Chr_LCD/ecu_chr_lcd.c: 502:    {;ECU/Chr_LCD/ecu_chr_lcd.c: 503:        column--;
  2447     1604  3001               	movlw	1
  2448     1605  02A4               	subwf	lcd_4bit_set_cursor@column,f
  2449                           
  2450                           ;ECU/Chr_LCD/ecu_chr_lcd.c: 504:        switch(row)
  2451     1606  2E21               	goto	l4609
  2452     1607                     l4603:
  2453     1607  0824               	movf	lcd_4bit_set_cursor@column,w
  2454     1608  3E80               	addlw	128
  2455     1609  00A0               	movwf	lcd_4bit_send_command@command
  2456     160A  0828               	movf	lcd_4bit_set_cursor@lcd,w
  2457     160B  160A  118A  26BA  160A  118A  	fcall	_lcd_4bit_send_command
  2458     1610  1283               	bcf	3,5	;RP0=0, select bank0
  2459     1611  1303               	bcf	3,6	;RP1=0, select bank0
  2460     1612  00A7               	movwf	lcd_4bit_set_cursor@ret
  2461     1613  2E31               	goto	l4611
  2462     1614                     l4605:
  2463     1614  0824               	movf	lcd_4bit_set_cursor@column,w
  2464     1615  3EC0               	addlw	192
  2465     1616  00A0               	movwf	lcd_4bit_send_command@command
  2466     1617  0828               	movf	lcd_4bit_set_cursor@lcd,w
  2467     1618  160A  118A  26BA  160A  118A  	fcall	_lcd_4bit_send_command
  2468     161D  1283               	bcf	3,5	;RP0=0, select bank0
  2469     161E  1303               	bcf	3,6	;RP1=0, select bank0
  2470     161F  00A7               	movwf	lcd_4bit_set_cursor@ret
  2471     1620  2E31               	goto	l4611
  2472     1621                     l4609:
  2473     1621  0823               	movf	lcd_4bit_set_cursor@row,w
  2474     1622  00A5               	movwf	??_lcd_4bit_set_cursor
  2475     1623  01A6               	clrf	??_lcd_4bit_set_cursor+1
  2476                           
  2477                           ; Switch on 2 bytes has been partitioned into a top level switch of size 1, and 1 sub-sw
      +                          itches
  2478                           ; Switch size 1, requested type "simple"
  2479                           ; Number of cases is 1, Range of values is 0 to 0
  2480                           ; switch strategies available:
  2481                           ; Name         Instructions Cycles
  2482                           ; simple_byte            4     3 (average)
  2483                           ; direct_byte           11     8 (fixed)
  2484                           ; jumptable            260     6 (fixed)
  2485                           ;	Chosen strategy is simple_byte
  2486     1624  0826               	movf	??_lcd_4bit_set_cursor+1,w
  2487     1625  3A00               	xorlw	0	; case 0
  2488     1626  1903               	skipnz
  2489     1627  2E29               	goto	l5771
  2490     1628  2E31               	goto	l4611
  2491     1629                     l5771:
  2492                           
  2493                           ; Switch size 1, requested type "simple"
  2494                           ; Number of cases is 2, Range of values is 1 to 2
  2495                           ; switch strategies available:
  2496                           ; Name         Instructions Cycles
  2497                           ; simple_byte            7     4 (average)
  2498                           ; direct_byte           17    11 (fixed)
  2499                           ; jumptable            263     9 (fixed)
  2500                           ;	Chosen strategy is simple_byte
  2501     1629  0825               	movf	??_lcd_4bit_set_cursor,w
  2502     162A  3A01               	xorlw	1	; case 1
  2503     162B  1903               	skipnz
  2504     162C  2E07               	goto	l4603
  2505     162D  3A03               	xorlw	3	; case 2
  2506     162E  1903               	skipnz
  2507     162F  2E14               	goto	l4605
  2508     1630  2E31               	goto	l4611
  2509     1631                     l4611:
  2510                           
  2511                           ;ECU/Chr_LCD/ecu_chr_lcd.c: 511:    return ret;
  2512     1631  0827               	movf	lcd_4bit_set_cursor@ret,w
  2513     1632                     l193:
  2514     1632  0008               	return
  2515     1633                     __end_of_lcd_4bit_set_cursor:
  2516                           
  2517                           	psect	text6
  2518     0BBB                     __ptext6:	
  2519 ;; *************** function _lcd_4bit_initialize *****************
  2520 ;; Defined at:
  2521 ;;		line 9 in file "ECU/Chr_LCD/ecu_chr_lcd.c"
  2522 ;; Parameters:    Size  Location     Type
  2523 ;;  lcd             1    wreg     PTR const struct .
  2524 ;;		 -> lcd1(6), 
  2525 ;; Auto vars:     Size  Location     Type
  2526 ;;  lcd             1    7[BANK0 ] PTR const struct .
  2527 ;;		 -> lcd1(6), 
  2528 ;;  ret             1    6[BANK0 ] unsigned char 
  2529 ;;  data_pins_co    1    5[BANK0 ] unsigned char 
  2530 ;; Return value:  Size  Location     Type
  2531 ;;                  1    wreg      unsigned char 
  2532 ;; Registers used:
  2533 ;;		wreg, fsr0l, fsr0h, status,2, status,0, btemp+1, pclath, cstack
  2534 ;; Tracked objects:
  2535 ;;		On entry : 0/0
  2536 ;;		On exit  : 0/0
  2537 ;;		Unchanged: 0/0
  2538 ;; Data sizes:     COMMON   BANK0   BANK1   BANK3   BANK2
  2539 ;;      Params:         0       0       0       0       0
  2540 ;;      Locals:         0       3       0       0       0
  2541 ;;      Temps:          0       2       0       0       0
  2542 ;;      Totals:         0       5       0       0       0
  2543 ;;Total ram usage:        5 bytes
  2544 ;; Hardware stack levels used: 1
  2545 ;; Hardware stack levels required when called: 3
  2546 ;; This function calls:
  2547 ;;		_gpio_pin_initialize
  2548 ;;		_lcd_4bit_send_command
  2549 ;; This function is called by:
  2550 ;;		_main
  2551 ;; This function uses a non-reentrant model
  2552 ;;
  2553                           
  2554     0BBB                     _lcd_4bit_initialize:	
  2555                           ;psect for function _lcd_4bit_initialize
  2556                           
  2557                           
  2558                           ;incstack = 0
  2559                           ; Regs used in _lcd_4bit_initialize: [wreg-fsr0h+status,2+status,0+btemp+1+pclath+cstack
      +                          ]
  2560                           ;lcd_4bit_initialize@lcd stored from wreg
  2561     0BBB  1283               	bcf	3,5	;RP0=0, select bank0
  2562     0BBC  1303               	bcf	3,6	;RP1=0, select bank0
  2563     0BBD  00A7               	movwf	lcd_4bit_initialize@lcd
  2564     0BBE                     l5017:
  2565                           
  2566                           ;ECU/Chr_LCD/ecu_chr_lcd.c: 12:    uint8 data_pins_counter = 0;
  2567     0BBE  01A5               	clrf	lcd_4bit_initialize@data_pins_counter
  2568     0BBF                     l5019:
  2569                           
  2570                           ;ECU/Chr_LCD/ecu_chr_lcd.c: 13:    if(((void*)0) == lcd)
  2571     0BBF  0827               	movf	lcd_4bit_initialize@lcd,w
  2572     0BC0  1D03               	btfss	3,2
  2573     0BC1  2BC3               	goto	u6881
  2574     0BC2  2BC4               	goto	u6880
  2575     0BC3                     u6881:
  2576     0BC3  2BC5               	goto	l5023
  2577     0BC4                     u6880:
  2578     0BC4                     l5021:
  2579                           
  2580                           ;ECU/Chr_LCD/ecu_chr_lcd.c: 16:    }
  2581     0BC4  2C87               	goto	l27
  2582     0BC5                     l5023:
  2583                           
  2584                           ;ECU/Chr_LCD/ecu_chr_lcd.c: 18:    {;ECU/Chr_LCD/ecu_chr_lcd.c: 19:        ret = gpio_pi
      +                          n_initialize(&(lcd->lcd_rs));
  2585     0BC5  0827               	movf	lcd_4bit_initialize@lcd,w
  2586     0BC6  160A  118A  25C5  120A  158A  	fcall	_gpio_pin_initialize
  2587     0BCB  1283               	bcf	3,5	;RP0=0, select bank0
  2588     0BCC  1303               	bcf	3,6	;RP1=0, select bank0
  2589     0BCD  00A6               	movwf	lcd_4bit_initialize@ret
  2590                           
  2591                           ;ECU/Chr_LCD/ecu_chr_lcd.c: 20:        ret &= gpio_pin_initialize(&(lcd->lcd_en));
  2592     0BCE  0827               	movf	lcd_4bit_initialize@lcd,w
  2593     0BCF  3E01               	addlw	1
  2594     0BD0  160A  118A  25C5  120A  158A  	fcall	_gpio_pin_initialize
  2595     0BD5  00FF               	movwf	btemp+1
  2596     0BD6  087F               	movf	btemp+1,w
  2597     0BD7  1283               	bcf	3,5	;RP0=0, select bank0
  2598     0BD8  1303               	bcf	3,6	;RP1=0, select bank0
  2599     0BD9  05A6               	andwf	lcd_4bit_initialize@ret,f
  2600     0BDA                     l5025:
  2601                           
  2602                           ;ECU/Chr_LCD/ecu_chr_lcd.c: 21:        for(data_pins_counter = 0; data_pins_counter<4; d
      +                          ata_pins_counter++)
  2603     0BDA  01A5               	clrf	lcd_4bit_initialize@data_pins_counter
  2604     0BDB                     l5031:
  2605                           
  2606                           ;ECU/Chr_LCD/ecu_chr_lcd.c: 22:            ret &= gpio_pin_initialize(&(lcd->lcd_data[da
      +                          ta_pins_counter]));
  2607     0BDB  0825               	movf	lcd_4bit_initialize@data_pins_counter,w
  2608     0BDC  0727               	addwf	lcd_4bit_initialize@lcd,w
  2609     0BDD  3E02               	addlw	2
  2610     0BDE  160A  118A  25C5  120A  158A  	fcall	_gpio_pin_initialize
  2611     0BE3  00FF               	movwf	btemp+1
  2612     0BE4  087F               	movf	btemp+1,w
  2613     0BE5  1283               	bcf	3,5	;RP0=0, select bank0
  2614     0BE6  1303               	bcf	3,6	;RP1=0, select bank0
  2615     0BE7  05A6               	andwf	lcd_4bit_initialize@ret,f
  2616     0BE8                     l5033:
  2617     0BE8  3001               	movlw	1
  2618     0BE9  00FF               	movwf	btemp+1
  2619     0BEA  087F               	movf	btemp+1,w
  2620     0BEB  07A5               	addwf	lcd_4bit_initialize@data_pins_counter,f
  2621     0BEC                     l5035:
  2622     0BEC  3004               	movlw	4
  2623     0BED  0225               	subwf	lcd_4bit_initialize@data_pins_counter,w
  2624     0BEE  1C03               	skipc
  2625     0BEF  2BF1               	goto	u6891
  2626     0BF0  2BF2               	goto	u6890
  2627     0BF1                     u6891:
  2628     0BF1  2BDB               	goto	l5031
  2629     0BF2                     u6890:
  2630     0BF2                     l5037:
  2631                           
  2632                           ;ECU/Chr_LCD/ecu_chr_lcd.c: 24:         _delay((unsigned long)((20)*(8000000/4000.0)));
  2633     0BF2  3034               	movlw	52
  2634     0BF3  1283               	bcf	3,5	;RP0=0, select bank0
  2635     0BF4  1303               	bcf	3,6	;RP1=0, select bank0
  2636     0BF5  00A4               	movwf	??_lcd_4bit_initialize+1
  2637     0BF6  30F1               	movlw	241
  2638     0BF7  00A3               	movwf	??_lcd_4bit_initialize
  2639     0BF8                     u7727:
  2640     0BF8  0BA3               	decfsz	??_lcd_4bit_initialize,f
  2641     0BF9  2BF8               	goto	u7727
  2642     0BFA  0BA4               	decfsz	??_lcd_4bit_initialize+1,f
  2643     0BFB  2BF8               	goto	u7727
  2644     0BFC                     l5039:
  2645                           
  2646                           ;ECU/Chr_LCD/ecu_chr_lcd.c: 25:        ret &= lcd_4bit_send_command(lcd, 0x38);
  2647     0BFC  3038               	movlw	56
  2648     0BFD  1283               	bcf	3,5	;RP0=0, select bank0
  2649     0BFE  1303               	bcf	3,6	;RP1=0, select bank0
  2650     0BFF  00A0               	movwf	lcd_4bit_send_command@command
  2651     0C00  0827               	movf	lcd_4bit_initialize@lcd,w
  2652     0C01  160A  118A  26BA  120A  158A  	fcall	_lcd_4bit_send_command
  2653     0C06  00FF               	movwf	btemp+1
  2654     0C07  087F               	movf	btemp+1,w
  2655     0C08  1283               	bcf	3,5	;RP0=0, select bank0
  2656     0C09  1303               	bcf	3,6	;RP1=0, select bank0
  2657     0C0A  05A6               	andwf	lcd_4bit_initialize@ret,f
  2658     0C0B                     l5041:
  2659                           
  2660                           ;ECU/Chr_LCD/ecu_chr_lcd.c: 26:        _delay((unsigned long)((5)*(8000000/4000.0)));
  2661     0C0B  300D               	movlw	13
  2662     0C0C  1283               	bcf	3,5	;RP0=0, select bank0
  2663     0C0D  1303               	bcf	3,6	;RP1=0, select bank0
  2664     0C0E  00A4               	movwf	??_lcd_4bit_initialize+1
  2665     0C0F  30FB               	movlw	251
  2666     0C10  00A3               	movwf	??_lcd_4bit_initialize
  2667     0C11                     u7737:
  2668     0C11  0BA3               	decfsz	??_lcd_4bit_initialize,f
  2669     0C12  2C11               	goto	u7737
  2670     0C13  0BA4               	decfsz	??_lcd_4bit_initialize+1,f
  2671     0C14  2C11               	goto	u7737
  2672                           
  2673                           ;ECU/Chr_LCD/ecu_chr_lcd.c: 27:        ret &= lcd_4bit_send_command(lcd, 0x38);
  2674     0C15  3038               	movlw	56
  2675     0C16  1283               	bcf	3,5	;RP0=0, select bank0
  2676     0C17  1303               	bcf	3,6	;RP1=0, select bank0
  2677     0C18  00A0               	movwf	lcd_4bit_send_command@command
  2678     0C19  0827               	movf	lcd_4bit_initialize@lcd,w
  2679     0C1A  160A  118A  26BA  120A  158A  	fcall	_lcd_4bit_send_command
  2680     0C1F  00FF               	movwf	btemp+1
  2681     0C20  087F               	movf	btemp+1,w
  2682     0C21  1283               	bcf	3,5	;RP0=0, select bank0
  2683     0C22  1303               	bcf	3,6	;RP1=0, select bank0
  2684     0C23  05A6               	andwf	lcd_4bit_initialize@ret,f
  2685     0C24                     l5043:
  2686                           
  2687                           ;ECU/Chr_LCD/ecu_chr_lcd.c: 28:        _delay((unsigned long)((150)*(8000000/4000000.0))
      +                          );
  2688     0C24  3063               	movlw	99
  2689     0C25  1283               	bcf	3,5	;RP0=0, select bank0
  2690     0C26  1303               	bcf	3,6	;RP1=0, select bank0
  2691     0C27  00A3               	movwf	??_lcd_4bit_initialize
  2692     0C28                     u7747:
  2693     0C28  0BA3               	decfsz	??_lcd_4bit_initialize,f
  2694     0C29  2C28               	goto	u7747
  2695     0C2A                     l5045:
  2696                           
  2697                           ;ECU/Chr_LCD/ecu_chr_lcd.c: 29:        ret &= lcd_4bit_send_command(lcd, 0x38);
  2698     0C2A  3038               	movlw	56
  2699     0C2B  1283               	bcf	3,5	;RP0=0, select bank0
  2700     0C2C  1303               	bcf	3,6	;RP1=0, select bank0
  2701     0C2D  00A0               	movwf	lcd_4bit_send_command@command
  2702     0C2E  0827               	movf	lcd_4bit_initialize@lcd,w
  2703     0C2F  160A  118A  26BA  120A  158A  	fcall	_lcd_4bit_send_command
  2704     0C34  00FF               	movwf	btemp+1
  2705     0C35  087F               	movf	btemp+1,w
  2706     0C36  1283               	bcf	3,5	;RP0=0, select bank0
  2707     0C37  1303               	bcf	3,6	;RP1=0, select bank0
  2708     0C38  05A6               	andwf	lcd_4bit_initialize@ret,f
  2709     0C39                     l5047:
  2710                           
  2711                           ;ECU/Chr_LCD/ecu_chr_lcd.c: 31:        ret &= lcd_4bit_send_command(lcd, 0x01);
  2712     0C39  01A0               	clrf	lcd_4bit_send_command@command
  2713     0C3A  0AA0               	incf	lcd_4bit_send_command@command,f
  2714     0C3B  0827               	movf	lcd_4bit_initialize@lcd,w
  2715     0C3C  160A  118A  26BA  120A  158A  	fcall	_lcd_4bit_send_command
  2716     0C41  00FF               	movwf	btemp+1
  2717     0C42  087F               	movf	btemp+1,w
  2718     0C43  1283               	bcf	3,5	;RP0=0, select bank0
  2719     0C44  1303               	bcf	3,6	;RP1=0, select bank0
  2720     0C45  05A6               	andwf	lcd_4bit_initialize@ret,f
  2721     0C46                     l5049:
  2722                           
  2723                           ;ECU/Chr_LCD/ecu_chr_lcd.c: 32:        ret &= lcd_4bit_send_command(lcd, 0x02);
  2724     0C46  3002               	movlw	2
  2725     0C47  00A0               	movwf	lcd_4bit_send_command@command
  2726     0C48  0827               	movf	lcd_4bit_initialize@lcd,w
  2727     0C49  160A  118A  26BA  120A  158A  	fcall	_lcd_4bit_send_command
  2728     0C4E  00FF               	movwf	btemp+1
  2729     0C4F  087F               	movf	btemp+1,w
  2730     0C50  1283               	bcf	3,5	;RP0=0, select bank0
  2731     0C51  1303               	bcf	3,6	;RP1=0, select bank0
  2732     0C52  05A6               	andwf	lcd_4bit_initialize@ret,f
  2733     0C53                     l5051:
  2734                           
  2735                           ;ECU/Chr_LCD/ecu_chr_lcd.c: 33:        ret &= lcd_4bit_send_command(lcd, 0x06);
  2736     0C53  3006               	movlw	6
  2737     0C54  00A0               	movwf	lcd_4bit_send_command@command
  2738     0C55  0827               	movf	lcd_4bit_initialize@lcd,w
  2739     0C56  160A  118A  26BA  120A  158A  	fcall	_lcd_4bit_send_command
  2740     0C5B  00FF               	movwf	btemp+1
  2741     0C5C  087F               	movf	btemp+1,w
  2742     0C5D  1283               	bcf	3,5	;RP0=0, select bank0
  2743     0C5E  1303               	bcf	3,6	;RP1=0, select bank0
  2744     0C5F  05A6               	andwf	lcd_4bit_initialize@ret,f
  2745     0C60                     l5053:
  2746                           
  2747                           ;ECU/Chr_LCD/ecu_chr_lcd.c: 34:        ret &= lcd_4bit_send_command(lcd, 0x0C);
  2748     0C60  300C               	movlw	12
  2749     0C61  00A0               	movwf	lcd_4bit_send_command@command
  2750     0C62  0827               	movf	lcd_4bit_initialize@lcd,w
  2751     0C63  160A  118A  26BA  120A  158A  	fcall	_lcd_4bit_send_command
  2752     0C68  00FF               	movwf	btemp+1
  2753     0C69  087F               	movf	btemp+1,w
  2754     0C6A  1283               	bcf	3,5	;RP0=0, select bank0
  2755     0C6B  1303               	bcf	3,6	;RP1=0, select bank0
  2756     0C6C  05A6               	andwf	lcd_4bit_initialize@ret,f
  2757     0C6D                     l5055:
  2758                           
  2759                           ;ECU/Chr_LCD/ecu_chr_lcd.c: 35:        ret &= lcd_4bit_send_command(lcd, 0x28);
  2760     0C6D  3028               	movlw	40
  2761     0C6E  00A0               	movwf	lcd_4bit_send_command@command
  2762     0C6F  0827               	movf	lcd_4bit_initialize@lcd,w
  2763     0C70  160A  118A  26BA  120A  158A  	fcall	_lcd_4bit_send_command
  2764     0C75  00FF               	movwf	btemp+1
  2765     0C76  087F               	movf	btemp+1,w
  2766     0C77  1283               	bcf	3,5	;RP0=0, select bank0
  2767     0C78  1303               	bcf	3,6	;RP1=0, select bank0
  2768     0C79  05A6               	andwf	lcd_4bit_initialize@ret,f
  2769     0C7A                     l5057:
  2770                           
  2771                           ;ECU/Chr_LCD/ecu_chr_lcd.c: 36:        ret &= lcd_4bit_send_command(lcd, 0X80);
  2772     0C7A  3080               	movlw	128
  2773     0C7B  00A0               	movwf	lcd_4bit_send_command@command
  2774     0C7C  0827               	movf	lcd_4bit_initialize@lcd,w
  2775     0C7D  160A  118A  26BA  120A  158A  	fcall	_lcd_4bit_send_command
  2776     0C82  00FF               	movwf	btemp+1
  2777     0C83  087F               	movf	btemp+1,w
  2778     0C84  1283               	bcf	3,5	;RP0=0, select bank0
  2779     0C85  1303               	bcf	3,6	;RP1=0, select bank0
  2780     0C86  05A6               	andwf	lcd_4bit_initialize@ret,f
  2781     0C87                     l27:
  2782     0C87  0008               	return
  2783     0C88                     __end_of_lcd_4bit_initialize:
  2784                           
  2785                           	psect	text7
  2786     16BA                     __ptext7:	
  2787 ;; *************** function _lcd_4bit_send_command *****************
  2788 ;; Defined at:
  2789 ;;		line 41 in file "ECU/Chr_LCD/ecu_chr_lcd.c"
  2790 ;; Parameters:    Size  Location     Type
  2791 ;;  lcd             1    wreg     PTR const struct .
  2792 ;;		 -> lcd1(6), 
  2793 ;;  command         1    0[BANK0 ] unsigned char 
  2794 ;; Auto vars:     Size  Location     Type
  2795 ;;  lcd             1    2[BANK0 ] PTR const struct .
  2796 ;;		 -> lcd1(6), 
  2797 ;;  ret             1    1[BANK0 ] unsigned char 
  2798 ;; Return value:  Size  Location     Type
  2799 ;;                  1    wreg      unsigned char 
  2800 ;; Registers used:
  2801 ;;		wreg, fsr0l, fsr0h, status,2, status,0, btemp+1, pclath, cstack
  2802 ;; Tracked objects:
  2803 ;;		On entry : 0/0
  2804 ;;		On exit  : 0/0
  2805 ;;		Unchanged: 0/0
  2806 ;; Data sizes:     COMMON   BANK0   BANK1   BANK3   BANK2
  2807 ;;      Params:         0       1       0       0       0
  2808 ;;      Locals:         0       2       0       0       0
  2809 ;;      Temps:          1       0       0       0       0
  2810 ;;      Totals:         1       3       0       0       0
  2811 ;;Total ram usage:        4 bytes
  2812 ;; Hardware stack levels used: 1
  2813 ;; Hardware stack levels required when called: 2
  2814 ;; This function calls:
  2815 ;;		_gpio_pin_write_logic
  2816 ;;		_lcd_4bit_send_enable_signal
  2817 ;;		_lcd_send_4bit
  2818 ;; This function is called by:
  2819 ;;		_lcd_4bit_initialize
  2820 ;;		_lcd_4bit_set_cursor
  2821 ;;		_main
  2822 ;; This function uses a non-reentrant model
  2823 ;;
  2824                           
  2825     16BA                     _lcd_4bit_send_command:	
  2826                           ;psect for function _lcd_4bit_send_command
  2827                           
  2828                           
  2829                           ;incstack = 0
  2830                           ; Regs used in _lcd_4bit_send_command: [wreg-fsr0h+status,2+status,0+btemp+1+pclath+csta
      +                          ck]
  2831                           ;lcd_4bit_send_command@lcd stored from wreg
  2832     16BA  1283               	bcf	3,5	;RP0=0, select bank0
  2833     16BB  1303               	bcf	3,6	;RP1=0, select bank0
  2834     16BC  00A2               	movwf	lcd_4bit_send_command@lcd
  2835     16BD                     l4319:
  2836     16BD                     l4321:
  2837                           
  2838                           ;ECU/Chr_LCD/ecu_chr_lcd.c: 44:    if(((void*)0) == lcd)
  2839     16BD  0822               	movf	lcd_4bit_send_command@lcd,w
  2840     16BE  1D03               	btfss	3,2
  2841     16BF  2EC1               	goto	u5351
  2842     16C0  2EC2               	goto	u5350
  2843     16C1                     u5351:
  2844     16C1  2EC4               	goto	l4325
  2845     16C2                     u5350:
  2846     16C2                     l4323:
  2847                           
  2848                           ;ECU/Chr_LCD/ecu_chr_lcd.c: 45:    {;ECU/Chr_LCD/ecu_chr_lcd.c: 46:        ret = (std_Re
      +                          turnType)0x00;
  2849     16C2  01A1               	clrf	lcd_4bit_send_command@ret
  2850                           
  2851                           ;ECU/Chr_LCD/ecu_chr_lcd.c: 47:    }
  2852     16C3  2F06               	goto	l4327
  2853     16C4                     l4325:
  2854                           
  2855                           ;ECU/Chr_LCD/ecu_chr_lcd.c: 49:    {;ECU/Chr_LCD/ecu_chr_lcd.c: 50:        ret = gpio_pi
      +                          n_write_logic(&(lcd->lcd_rs), GPIO_LOW);
  2856     16C4  01F0               	clrf	gpio_pin_write_logic@logic
  2857     16C5  0822               	movf	lcd_4bit_send_command@lcd,w
  2858     16C6  120A  158A  20E6  160A  118A  	fcall	_gpio_pin_write_logic
  2859     16CB  1283               	bcf	3,5	;RP0=0, select bank0
  2860     16CC  1303               	bcf	3,6	;RP1=0, select bank0
  2861     16CD  00A1               	movwf	lcd_4bit_send_command@ret
  2862                           
  2863                           ;ECU/Chr_LCD/ecu_chr_lcd.c: 51:        ret &= lcd_send_4bit(lcd, (command >> 4));
  2864     16CE  0820               	movf	lcd_4bit_send_command@command,w
  2865     16CF  00FC               	movwf	??_lcd_4bit_send_command
  2866     16D0  3004               	movlw	4
  2867     16D1                     u5365:
  2868     16D1  1003               	clrc
  2869     16D2  0CFC               	rrf	??_lcd_4bit_send_command,f
  2870     16D3  3EFF               	addlw	-1
  2871     16D4  1D03               	skipz
  2872     16D5  2ED1               	goto	u5365
  2873     16D6  087C               	movf	??_lcd_4bit_send_command,w
  2874     16D7  00F8               	movwf	lcd_send_4bit@_data_command
  2875     16D8  0822               	movf	lcd_4bit_send_command@lcd,w
  2876     16D9  160A  118A  2708  160A  118A  	fcall	_lcd_send_4bit
  2877     16DE  00FF               	movwf	btemp+1
  2878     16DF  087F               	movf	btemp+1,w
  2879     16E0  1283               	bcf	3,5	;RP0=0, select bank0
  2880     16E1  1303               	bcf	3,6	;RP1=0, select bank0
  2881     16E2  05A1               	andwf	lcd_4bit_send_command@ret,f
  2882                           
  2883                           ;ECU/Chr_LCD/ecu_chr_lcd.c: 52:        ret &= lcd_4bit_send_enable_signal(lcd);
  2884     16E3  0822               	movf	lcd_4bit_send_command@lcd,w
  2885     16E4  160A  118A  24FD  160A  118A  	fcall	_lcd_4bit_send_enable_signal
  2886     16E9  00FF               	movwf	btemp+1
  2887     16EA  087F               	movf	btemp+1,w
  2888     16EB  1283               	bcf	3,5	;RP0=0, select bank0
  2889     16EC  1303               	bcf	3,6	;RP1=0, select bank0
  2890     16ED  05A1               	andwf	lcd_4bit_send_command@ret,f
  2891                           
  2892                           ;ECU/Chr_LCD/ecu_chr_lcd.c: 53:        ret &= lcd_send_4bit(lcd, command);
  2893     16EE  0820               	movf	lcd_4bit_send_command@command,w
  2894     16EF  00F8               	movwf	lcd_send_4bit@_data_command
  2895     16F0  0822               	movf	lcd_4bit_send_command@lcd,w
  2896     16F1  160A  118A  2708  160A  118A  	fcall	_lcd_send_4bit
  2897     16F6  00FF               	movwf	btemp+1
  2898     16F7  087F               	movf	btemp+1,w
  2899     16F8  1283               	bcf	3,5	;RP0=0, select bank0
  2900     16F9  1303               	bcf	3,6	;RP1=0, select bank0
  2901     16FA  05A1               	andwf	lcd_4bit_send_command@ret,f
  2902                           
  2903                           ;ECU/Chr_LCD/ecu_chr_lcd.c: 54:        ret &= lcd_4bit_send_enable_signal(lcd);
  2904     16FB  0822               	movf	lcd_4bit_send_command@lcd,w
  2905     16FC  160A  118A  24FD  160A  118A  	fcall	_lcd_4bit_send_enable_signal
  2906     1701  00FF               	movwf	btemp+1
  2907     1702  087F               	movf	btemp+1,w
  2908     1703  1283               	bcf	3,5	;RP0=0, select bank0
  2909     1704  1303               	bcf	3,6	;RP1=0, select bank0
  2910     1705  05A1               	andwf	lcd_4bit_send_command@ret,f
  2911     1706                     l4327:
  2912                           
  2913                           ;ECU/Chr_LCD/ecu_chr_lcd.c: 56:    return ret;
  2914     1706  0821               	movf	lcd_4bit_send_command@ret,w
  2915     1707                     l32:
  2916     1707  0008               	return
  2917     1708                     __end_of_lcd_4bit_send_command:
  2918                           
  2919                           	psect	text8
  2920     1708                     __ptext8:	
  2921 ;; *************** function _lcd_send_4bit *****************
  2922 ;; Defined at:
  2923 ;;		line 425 in file "ECU/Chr_LCD/ecu_chr_lcd.c"
  2924 ;; Parameters:    Size  Location     Type
  2925 ;;  lcd             1    wreg     PTR const struct .
  2926 ;;		 -> lcd1(6), 
  2927 ;;  _data_comman    1    8[COMMON] unsigned char 
  2928 ;; Auto vars:     Size  Location     Type
  2929 ;;  lcd             1   11[COMMON] PTR const struct .
  2930 ;;		 -> lcd1(6), 
  2931 ;;  ret             1   10[COMMON] unsigned char 
  2932 ;; Return value:  Size  Location     Type
  2933 ;;                  1    wreg      unsigned char 
  2934 ;; Registers used:
  2935 ;;		wreg, fsr0l, fsr0h, status,2, status,0, btemp+1, pclath, cstack
  2936 ;; Tracked objects:
  2937 ;;		On entry : 0/0
  2938 ;;		On exit  : 0/0
  2939 ;;		Unchanged: 0/0
  2940 ;; Data sizes:     COMMON   BANK0   BANK1   BANK3   BANK2
  2941 ;;      Params:         1       0       0       0       0
  2942 ;;      Locals:         2       0       0       0       0
  2943 ;;      Temps:          1       0       0       0       0
  2944 ;;      Totals:         4       0       0       0       0
  2945 ;;Total ram usage:        4 bytes
  2946 ;; Hardware stack levels used: 1
  2947 ;; Hardware stack levels required when called: 1
  2948 ;; This function calls:
  2949 ;;		_gpio_pin_write_logic
  2950 ;; This function is called by:
  2951 ;;		_lcd_4bit_send_command
  2952 ;;		_lcd_4bit_send_char_data
  2953 ;;		_lcd_4bit_send_char_data_pos
  2954 ;; This function uses a non-reentrant model
  2955 ;;
  2956                           
  2957     1708                     _lcd_send_4bit:	
  2958                           ;psect for function _lcd_send_4bit
  2959                           
  2960                           
  2961                           ;incstack = 0
  2962                           ; Regs used in _lcd_send_4bit: [wreg-fsr0h+status,2+status,0+btemp+1+pclath+cstack]
  2963                           ;lcd_send_4bit@lcd stored from wreg
  2964     1708  00FB               	movwf	lcd_send_4bit@lcd
  2965     1709                     l4293:
  2966     1709                     l4295:
  2967                           
  2968                           ;ECU/Chr_LCD/ecu_chr_lcd.c: 428:    if(((void*)0) == lcd)
  2969     1709  087B               	movf	lcd_send_4bit@lcd,w
  2970     170A  1D03               	btfss	3,2
  2971     170B  2F0D               	goto	u5311
  2972     170C  2F0E               	goto	u5310
  2973     170D                     u5311:
  2974     170D  2F10               	goto	l4299
  2975     170E                     u5310:
  2976     170E                     l4297:
  2977                           
  2978                           ;ECU/Chr_LCD/ecu_chr_lcd.c: 429:    {;ECU/Chr_LCD/ecu_chr_lcd.c: 430:        ret = (std_
      +                          ReturnType)0x00;
  2979     170E  01FA               	clrf	lcd_send_4bit@ret
  2980                           
  2981                           ;ECU/Chr_LCD/ecu_chr_lcd.c: 431:    }
  2982     170F  2F55               	goto	l4301
  2983     1710                     l4299:
  2984                           
  2985                           ;ECU/Chr_LCD/ecu_chr_lcd.c: 433:    {;ECU/Chr_LCD/ecu_chr_lcd.c: 434:        ret = gpio_
      +                          pin_write_logic(&(lcd->lcd_data[0]), (_data_command >> 0) & (uint8)0x01);
  2986     1710  0878               	movf	lcd_send_4bit@_data_command,w
  2987     1711  3901               	andlw	1
  2988     1712  00F0               	movwf	gpio_pin_write_logic@logic
  2989     1713  087B               	movf	lcd_send_4bit@lcd,w
  2990     1714  3E02               	addlw	2
  2991     1715  120A  158A  20E6  160A  118A  	fcall	_gpio_pin_write_logic
  2992     171A  00FA               	movwf	lcd_send_4bit@ret
  2993                           
  2994                           ;ECU/Chr_LCD/ecu_chr_lcd.c: 435:        ret &= gpio_pin_write_logic(&(lcd->lcd_data[1]),
      +                           (_data_command >> 1) & (uint8)0x01);
  2995     171B  0878               	movf	lcd_send_4bit@_data_command,w
  2996     171C  00F9               	movwf	??_lcd_send_4bit
  2997     171D  1003               	clrc
  2998     171E  0C79               	rrf	??_lcd_send_4bit,w
  2999     171F  3901               	andlw	1
  3000     1720  00F0               	movwf	gpio_pin_write_logic@logic
  3001     1721  087B               	movf	lcd_send_4bit@lcd,w
  3002     1722  3E03               	addlw	3
  3003     1723  120A  158A  20E6  160A  118A  	fcall	_gpio_pin_write_logic
  3004     1728  00FF               	movwf	btemp+1
  3005     1729  087F               	movf	btemp+1,w
  3006     172A  05FA               	andwf	lcd_send_4bit@ret,f
  3007                           
  3008                           ;ECU/Chr_LCD/ecu_chr_lcd.c: 436:        ret &= gpio_pin_write_logic(&(lcd->lcd_data[2]),
      +                           (_data_command >> 2) & (uint8)0x01);
  3009     172B  0878               	movf	lcd_send_4bit@_data_command,w
  3010     172C  00F9               	movwf	??_lcd_send_4bit
  3011     172D  3002               	movlw	2
  3012     172E                     u5325:
  3013     172E  1003               	clrc
  3014     172F  0CF9               	rrf	??_lcd_send_4bit,f
  3015     1730  3EFF               	addlw	-1
  3016     1731  1D03               	skipz
  3017     1732  2F2E               	goto	u5325
  3018     1733  0879               	movf	??_lcd_send_4bit,w
  3019     1734  3901               	andlw	1
  3020     1735  00F0               	movwf	gpio_pin_write_logic@logic
  3021     1736  087B               	movf	lcd_send_4bit@lcd,w
  3022     1737  3E04               	addlw	4
  3023     1738  120A  158A  20E6  160A  118A  	fcall	_gpio_pin_write_logic
  3024     173D  00FF               	movwf	btemp+1
  3025     173E  087F               	movf	btemp+1,w
  3026     173F  05FA               	andwf	lcd_send_4bit@ret,f
  3027                           
  3028                           ;ECU/Chr_LCD/ecu_chr_lcd.c: 437:        ret &= gpio_pin_write_logic(&(lcd->lcd_data[3]),
      +                           (_data_command >> 3) & (uint8)0x01);
  3029     1740  0878               	movf	lcd_send_4bit@_data_command,w
  3030     1741  00F9               	movwf	??_lcd_send_4bit
  3031     1742  3003               	movlw	3
  3032     1743                     u5335:
  3033     1743  1003               	clrc
  3034     1744  0CF9               	rrf	??_lcd_send_4bit,f
  3035     1745  3EFF               	addlw	-1
  3036     1746  1D03               	skipz
  3037     1747  2F43               	goto	u5335
  3038     1748  0879               	movf	??_lcd_send_4bit,w
  3039     1749  3901               	andlw	1
  3040     174A  00F0               	movwf	gpio_pin_write_logic@logic
  3041     174B  087B               	movf	lcd_send_4bit@lcd,w
  3042     174C  3E05               	addlw	5
  3043     174D  120A  158A  20E6  160A  118A  	fcall	_gpio_pin_write_logic
  3044     1752  00FF               	movwf	btemp+1
  3045     1753  087F               	movf	btemp+1,w
  3046     1754  05FA               	andwf	lcd_send_4bit@ret,f
  3047     1755                     l4301:
  3048                           
  3049                           ;ECU/Chr_LCD/ecu_chr_lcd.c: 439:    return ret;
  3050     1755  087A               	movf	lcd_send_4bit@ret,w
  3051     1756                     l163:
  3052     1756  0008               	return
  3053     1757                     __end_of_lcd_send_4bit:
  3054                           
  3055                           	psect	text9
  3056     14FD                     __ptext9:	
  3057 ;; *************** function _lcd_4bit_send_enable_signal *****************
  3058 ;; Defined at:
  3059 ;;		line 441 in file "ECU/Chr_LCD/ecu_chr_lcd.c"
  3060 ;; Parameters:    Size  Location     Type
  3061 ;;  lcd             1    wreg     PTR const struct .
  3062 ;;		 -> lcd1(6), 
  3063 ;; Auto vars:     Size  Location     Type
  3064 ;;  lcd             1   10[COMMON] PTR const struct .
  3065 ;;		 -> lcd1(6), 
  3066 ;;  ret             1    9[COMMON] unsigned char 
  3067 ;; Return value:  Size  Location     Type
  3068 ;;                  1    wreg      unsigned char 
  3069 ;; Registers used:
  3070 ;;		wreg, fsr0l, fsr0h, status,2, status,0, btemp+1, pclath, cstack
  3071 ;; Tracked objects:
  3072 ;;		On entry : 0/0
  3073 ;;		On exit  : 0/0
  3074 ;;		Unchanged: 0/0
  3075 ;; Data sizes:     COMMON   BANK0   BANK1   BANK3   BANK2
  3076 ;;      Params:         0       0       0       0       0
  3077 ;;      Locals:         2       0       0       0       0
  3078 ;;      Temps:          1       0       0       0       0
  3079 ;;      Totals:         3       0       0       0       0
  3080 ;;Total ram usage:        3 bytes
  3081 ;; Hardware stack levels used: 1
  3082 ;; Hardware stack levels required when called: 1
  3083 ;; This function calls:
  3084 ;;		_gpio_pin_write_logic
  3085 ;; This function is called by:
  3086 ;;		_lcd_4bit_send_command
  3087 ;;		_lcd_4bit_send_char_data
  3088 ;;		_lcd_4bit_send_char_data_pos
  3089 ;; This function uses a non-reentrant model
  3090 ;;
  3091                           
  3092     14FD                     _lcd_4bit_send_enable_signal:	
  3093                           ;psect for function _lcd_4bit_send_enable_signal
  3094                           
  3095                           
  3096                           ;incstack = 0
  3097                           ; Regs used in _lcd_4bit_send_enable_signal: [wreg-fsr0h+status,2+status,0+btemp+1+pclat
      +                          h+cstack]
  3098                           ;lcd_4bit_send_enable_signal@lcd stored from wreg
  3099     14FD  00FA               	movwf	lcd_4bit_send_enable_signal@lcd
  3100     14FE                     l4305:
  3101     14FE                     l4307:
  3102                           
  3103                           ;ECU/Chr_LCD/ecu_chr_lcd.c: 444:    if(((void*)0) == lcd)
  3104     14FE  087A               	movf	lcd_4bit_send_enable_signal@lcd,w
  3105     14FF  1D03               	btfss	3,2
  3106     1500  2D02               	goto	u5341
  3107     1501  2D03               	goto	u5340
  3108     1502                     u5341:
  3109     1502  2D05               	goto	l4311
  3110     1503                     u5340:
  3111     1503                     l4309:
  3112                           
  3113                           ;ECU/Chr_LCD/ecu_chr_lcd.c: 445:    {;ECU/Chr_LCD/ecu_chr_lcd.c: 446:        ret = (std_
      +                          ReturnType)0x00;
  3114     1503  01F9               	clrf	lcd_4bit_send_enable_signal@ret
  3115                           
  3116                           ;ECU/Chr_LCD/ecu_chr_lcd.c: 447:    }
  3117     1504  2D1E               	goto	l167
  3118     1505                     l4311:
  3119                           
  3120                           ;ECU/Chr_LCD/ecu_chr_lcd.c: 449:    {;ECU/Chr_LCD/ecu_chr_lcd.c: 450:        ret = gpio_
      +                          pin_write_logic(&(lcd->lcd_en), GPIO_HIGH);
  3121     1505  01F0               	clrf	gpio_pin_write_logic@logic
  3122     1506  0AF0               	incf	gpio_pin_write_logic@logic,f
  3123     1507  087A               	movf	lcd_4bit_send_enable_signal@lcd,w
  3124     1508  3E01               	addlw	1
  3125     1509  120A  158A  20E6  160A  118A  	fcall	_gpio_pin_write_logic
  3126     150E  00F9               	movwf	lcd_4bit_send_enable_signal@ret
  3127     150F                     l4313:
  3128                           
  3129                           ;ECU/Chr_LCD/ecu_chr_lcd.c: 451:        _delay((unsigned long)((5)*(8000000/4000000.0)))
      +                          ;
  3130     150F  3003               	movlw	3
  3131     1510  00F8               	movwf	??_lcd_4bit_send_enable_signal
  3132     1511                     u7757:
  3133     1511  0BF8               	decfsz	??_lcd_4bit_send_enable_signal,f
  3134     1512  2D11               	goto	u7757
  3135     1513                     l4315:
  3136                           
  3137                           ;ECU/Chr_LCD/ecu_chr_lcd.c: 452:        ret &= gpio_pin_write_logic(&(lcd->lcd_en), GPIO
      +                          _LOW);
  3138     1513  01F0               	clrf	gpio_pin_write_logic@logic
  3139     1514  087A               	movf	lcd_4bit_send_enable_signal@lcd,w
  3140     1515  3E01               	addlw	1
  3141     1516  120A  158A  20E6  160A  118A  	fcall	_gpio_pin_write_logic
  3142     151B  00FF               	movwf	btemp+1
  3143     151C  087F               	movf	btemp+1,w
  3144     151D  05F9               	andwf	lcd_4bit_send_enable_signal@ret,f
  3145     151E                     l167:	
  3146                           ;ECU/Chr_LCD/ecu_chr_lcd.c: 453:    }
  3147                           
  3148                           
  3149                           ;ECU/Chr_LCD/ecu_chr_lcd.c: 454:    return ret;
  3150     151E  0879               	movf	lcd_4bit_send_enable_signal@ret,w
  3151     151F                     l168:
  3152     151F  0008               	return
  3153     1520                     __end_of_lcd_4bit_send_enable_signal:
  3154                           
  3155                           	psect	text10
  3156     1633                     __ptext10:	
  3157 ;; *************** function _keypad_initialize *****************
  3158 ;; Defined at:
  3159 ;;		line 8 in file "ECU/Keypad/ecu_keypad.c"
  3160 ;; Parameters:    Size  Location     Type
  3161 ;;  keypad          1    wreg     PTR struct .
  3162 ;;		 -> keypad1(8), 
  3163 ;; Auto vars:     Size  Location     Type
  3164 ;;  keypad          1    3[BANK0 ] PTR struct .
  3165 ;;		 -> keypad1(8), 
  3166 ;;  columns_coun    1    2[BANK0 ] unsigned char 
  3167 ;;  row_counter     1    1[BANK0 ] unsigned char 
  3168 ;;  ret             1    0[BANK0 ] unsigned char 
  3169 ;; Return value:  Size  Location     Type
  3170 ;;                  1    wreg      unsigned char 
  3171 ;; Registers used:
  3172 ;;		wreg, fsr0l, fsr0h, status,2, status,0, btemp+1, pclath, cstack
  3173 ;; Tracked objects:
  3174 ;;		On entry : 0/0
  3175 ;;		On exit  : 0/0
  3176 ;;		Unchanged: 0/0
  3177 ;; Data sizes:     COMMON   BANK0   BANK1   BANK3   BANK2
  3178 ;;      Params:         0       0       0       0       0
  3179 ;;      Locals:         0       4       0       0       0
  3180 ;;      Temps:          0       0       0       0       0
  3181 ;;      Totals:         0       4       0       0       0
  3182 ;;Total ram usage:        4 bytes
  3183 ;; Hardware stack levels used: 1
  3184 ;; Hardware stack levels required when called: 2
  3185 ;; This function calls:
  3186 ;;		_gpio_pin_initialize
  3187 ;;		_gpio_pin_initialize_direction
  3188 ;; This function is called by:
  3189 ;;		_main
  3190 ;; This function uses a non-reentrant model
  3191 ;;
  3192                           
  3193     1633                     _keypad_initialize:	
  3194                           ;psect for function _keypad_initialize
  3195                           
  3196                           
  3197                           ;incstack = 0
  3198                           ; Regs used in _keypad_initialize: [wreg-fsr0h+status,2+status,0+btemp+1+pclath+cstack]
  3199                           ;keypad_initialize@keypad stored from wreg
  3200     1633  1283               	bcf	3,5	;RP0=0, select bank0
  3201     1634  1303               	bcf	3,6	;RP1=0, select bank0
  3202     1635  00A3               	movwf	keypad_initialize@keypad
  3203     1636                     l5219:
  3204                           
  3205                           ;ECU/Keypad/ecu_keypad.c: 11:     uint8 row_counter = 0;
  3206     1636  01A1               	clrf	keypad_initialize@row_counter
  3207                           
  3208                           ;ECU/Keypad/ecu_keypad.c: 12:     uint8 columns_counter = 0;
  3209     1637  01A2               	clrf	keypad_initialize@columns_counter
  3210     1638                     l5221:
  3211                           
  3212                           ;ECU/Keypad/ecu_keypad.c: 13:     if(((void*)0) == keypad)
  3213     1638  0823               	movf	keypad_initialize@keypad,w
  3214     1639  1D03               	btfss	3,2
  3215     163A  2E3C               	goto	u7091
  3216     163B  2E3D               	goto	u7090
  3217     163C                     u7091:
  3218     163C  2E3E               	goto	l206
  3219     163D                     u7090:
  3220     163D                     l5223:
  3221                           
  3222                           ;ECU/Keypad/ecu_keypad.c: 16:     }
  3223     163D  2E6F               	goto	l212
  3224     163E                     l206:	
  3225                           ;ECU/Keypad/ecu_keypad.c: 17:     else
  3226                           
  3227                           
  3228                           ;ECU/Keypad/ecu_keypad.c: 18:     {;ECU/Keypad/ecu_keypad.c: 19:         ret = (std_Retu
      +                          rnType)0x01;
  3229     163E  01A0               	clrf	keypad_initialize@ret
  3230     163F  0AA0               	incf	keypad_initialize@ret,f
  3231     1640                     l5225:
  3232                           
  3233                           ;ECU/Keypad/ecu_keypad.c: 20:         for(row_counter = 0; row_counter < 4; row_counter+
      +                          +)
  3234     1640  01A1               	clrf	keypad_initialize@row_counter
  3235     1641                     l5231:
  3236                           
  3237                           ;ECU/Keypad/ecu_keypad.c: 21:         {;ECU/Keypad/ecu_keypad.c: 22:             ret &= 
      +                          gpio_pin_initialize(&(keypad->keypad_row_pins[row_counter]));
  3238     1641  0821               	movf	keypad_initialize@row_counter,w
  3239     1642  0723               	addwf	keypad_initialize@keypad,w
  3240     1643  160A  118A  25C5  160A  118A  	fcall	_gpio_pin_initialize
  3241     1648  00FF               	movwf	btemp+1
  3242     1649  087F               	movf	btemp+1,w
  3243     164A  1283               	bcf	3,5	;RP0=0, select bank0
  3244     164B  1303               	bcf	3,6	;RP1=0, select bank0
  3245     164C  05A0               	andwf	keypad_initialize@ret,f
  3246     164D                     l5233:
  3247                           
  3248                           ;ECU/Keypad/ecu_keypad.c: 23:         }
  3249     164D  3001               	movlw	1
  3250     164E  00FF               	movwf	btemp+1
  3251     164F  087F               	movf	btemp+1,w
  3252     1650  07A1               	addwf	keypad_initialize@row_counter,f
  3253     1651                     l5235:
  3254     1651  3004               	movlw	4
  3255     1652  0221               	subwf	keypad_initialize@row_counter,w
  3256     1653  1C03               	skipc
  3257     1654  2E56               	goto	u7101
  3258     1655  2E57               	goto	u7100
  3259     1656                     u7101:
  3260     1656  2E41               	goto	l5231
  3261     1657                     u7100:
  3262     1657                     l5237:
  3263                           
  3264                           ;ECU/Keypad/ecu_keypad.c: 24:         for(columns_counter = 0; columns_counter < 4; colu
      +                          mns_counter++)
  3265     1657  01A2               	clrf	keypad_initialize@columns_counter
  3266     1658                     l5243:
  3267                           
  3268                           ;ECU/Keypad/ecu_keypad.c: 25:         {;ECU/Keypad/ecu_keypad.c: 26:             ret &= 
      +                          gpio_pin_initialize_direction(&(keypad->keypad_column_pins[columns_counter]));
  3269     1658  0822               	movf	keypad_initialize@columns_counter,w
  3270     1659  0723               	addwf	keypad_initialize@keypad,w
  3271     165A  3E04               	addlw	4
  3272     165B  120A  158A  21DE  160A  118A  	fcall	_gpio_pin_initialize_direction
  3273     1660  00FF               	movwf	btemp+1
  3274     1661  087F               	movf	btemp+1,w
  3275     1662  1283               	bcf	3,5	;RP0=0, select bank0
  3276     1663  1303               	bcf	3,6	;RP1=0, select bank0
  3277     1664  05A0               	andwf	keypad_initialize@ret,f
  3278     1665                     l5245:
  3279                           
  3280                           ;ECU/Keypad/ecu_keypad.c: 27:         }
  3281     1665  3001               	movlw	1
  3282     1666  00FF               	movwf	btemp+1
  3283     1667  087F               	movf	btemp+1,w
  3284     1668  07A2               	addwf	keypad_initialize@columns_counter,f
  3285     1669                     l5247:
  3286     1669  3004               	movlw	4
  3287     166A  0222               	subwf	keypad_initialize@columns_counter,w
  3288     166B  1C03               	skipc
  3289     166C  2E6E               	goto	u7111
  3290     166D  2E6F               	goto	u7110
  3291     166E                     u7111:
  3292     166E  2E58               	goto	l5243
  3293     166F                     u7110:
  3294     166F                     l212:
  3295     166F  0008               	return
  3296     1670                     __end_of_keypad_initialize:
  3297                           
  3298                           	psect	text11
  3299     15C5                     __ptext11:	
  3300 ;; *************** function _gpio_pin_initialize *****************
  3301 ;; Defined at:
  3302 ;;		line 98 in file "MCAL_Layer/GPIO/gpio_hal.c"
  3303 ;; Parameters:    Size  Location     Type
  3304 ;;  pin_config      1    wreg     PTR const struct .
  3305 ;;		 -> lcd1$lcd_data(4), keypad1$keypad_row_pins(4), lcd1(6), keypad1(8), 
  3306 ;;		 -> led_intialize@pin_obj(1), 
  3307 ;; Auto vars:     Size  Location     Type
  3308 ;;  pin_config      1   11[COMMON] PTR const struct .
  3309 ;;		 -> lcd1$lcd_data(4), keypad1$keypad_row_pins(4), lcd1(6), keypad1(8), 
  3310 ;;		 -> led_intialize@pin_obj(1), 
  3311 ;;  ret             1   10[COMMON] unsigned char 
  3312 ;; Return value:  Size  Location     Type
  3313 ;;                  1    wreg      unsigned char 
  3314 ;; Registers used:
  3315 ;;		wreg, fsr0l, fsr0h, status,2, status,0, btemp+1, pclath, cstack
  3316 ;; Tracked objects:
  3317 ;;		On entry : 0/0
  3318 ;;		On exit  : 0/0
  3319 ;;		Unchanged: 0/0
  3320 ;; Data sizes:     COMMON   BANK0   BANK1   BANK3   BANK2
  3321 ;;      Params:         0       0       0       0       0
  3322 ;;      Locals:         2       0       0       0       0
  3323 ;;      Temps:          2       0       0       0       0
  3324 ;;      Totals:         4       0       0       0       0
  3325 ;;Total ram usage:        4 bytes
  3326 ;; Hardware stack levels used: 1
  3327 ;; Hardware stack levels required when called: 1
  3328 ;; This function calls:
  3329 ;;		_gpio_pin_initialize_direction
  3330 ;;		_gpio_pin_write_logic
  3331 ;; This function is called by:
  3332 ;;		_lcd_4bit_initialize
  3333 ;;		_keypad_initialize
  3334 ;;		_lcd_8bit_initialize
  3335 ;;		_led_intialize
  3336 ;; This function uses a non-reentrant model
  3337 ;;
  3338                           
  3339     15C5                     _gpio_pin_initialize:	
  3340                           ;psect for function _gpio_pin_initialize
  3341                           
  3342                           
  3343                           ;incstack = 0
  3344                           ; Regs used in _gpio_pin_initialize: [wreg-fsr0h+status,2+status,0+btemp+1+pclath+cstack
      +                          ]
  3345                           ;gpio_pin_initialize@pin_config stored from wreg
  3346     15C5  00FB               	movwf	gpio_pin_initialize@pin_config
  3347     15C6                     l4569:
  3348     15C6                     l4571:
  3349                           
  3350                           ;MCAL_Layer/GPIO/gpio_hal.c: 101:     if((((void*)0) == pin_config)||(pin_config->pin > 
      +                          8 - 1))
  3351     15C6  087B               	movf	gpio_pin_initialize@pin_config,w
  3352     15C7  1903               	btfsc	3,2
  3353     15C8  2DCA               	goto	u5901
  3354     15C9  2DCB               	goto	u5900
  3355     15CA                     u5901:
  3356     15CA  2DDA               	goto	l4575
  3357     15CB                     u5900:
  3358     15CB                     l4573:
  3359     15CB  087B               	movf	gpio_pin_initialize@pin_config,w
  3360     15CC  0084               	movwf	4
  3361     15CD  1383               	bcf	3,7	;select IRP bank0
  3362     15CE  0C00               	rrf	0,w
  3363     15CF  00F8               	movwf	??_gpio_pin_initialize
  3364     15D0  0CF8               	rrf	??_gpio_pin_initialize,f
  3365     15D1  0C78               	rrf	??_gpio_pin_initialize,w
  3366     15D2  3907               	andlw	7
  3367     15D3  00F9               	movwf	??_gpio_pin_initialize+1
  3368     15D4  3008               	movlw	8
  3369     15D5  0279               	subwf	??_gpio_pin_initialize+1,w
  3370     15D6  1C03               	skipc
  3371     15D7  2DD9               	goto	u5911
  3372     15D8  2DDA               	goto	u5910
  3373     15D9                     u5911:
  3374     15D9  2DDC               	goto	l332
  3375     15DA                     u5910:
  3376     15DA                     l4575:
  3377                           
  3378                           ;MCAL_Layer/GPIO/gpio_hal.c: 102:     {;MCAL_Layer/GPIO/gpio_hal.c: 103:         ret = (
      +                          std_ReturnType)0x00;
  3379     15DA  01FA               	clrf	gpio_pin_initialize@ret
  3380                           
  3381                           ;MCAL_Layer/GPIO/gpio_hal.c: 104:     }
  3382     15DB  2DF7               	goto	l4579
  3383     15DC                     l332:	
  3384                           ;MCAL_Layer/GPIO/gpio_hal.c: 105:     else
  3385                           
  3386                           
  3387                           ;MCAL_Layer/GPIO/gpio_hal.c: 106:     {;MCAL_Layer/GPIO/gpio_hal.c: 107:         ret = (
      +                          std_ReturnType)0x01;
  3388     15DC  01FA               	clrf	gpio_pin_initialize@ret
  3389     15DD  0AFA               	incf	gpio_pin_initialize@ret,f
  3390     15DE                     l4577:
  3391                           
  3392                           ;MCAL_Layer/GPIO/gpio_hal.c: 108:         ret &= gpio_pin_initialize_direction(pin_confi
      +                          g);
  3393     15DE  087B               	movf	gpio_pin_initialize@pin_config,w
  3394     15DF  120A  158A  21DE  160A  118A  	fcall	_gpio_pin_initialize_direction
  3395     15E4  00FF               	movwf	btemp+1
  3396     15E5  087F               	movf	btemp+1,w
  3397     15E6  05FA               	andwf	gpio_pin_initialize@ret,f
  3398                           
  3399                           ;MCAL_Layer/GPIO/gpio_hal.c: 109:         ret &= gpio_pin_write_logic(pin_config, pin_co
      +                          nfig->logic);
  3400     15E7  087B               	movf	gpio_pin_initialize@pin_config,w
  3401     15E8  0084               	movwf	4
  3402     15E9  3000               	movlw	0
  3403     15EA  1383               	bcf	3,7	;select IRP bank0
  3404     15EB  1B80               	btfsc	0,7
  3405     15EC  3001               	movlw	1
  3406     15ED  00F0               	movwf	gpio_pin_write_logic@logic
  3407     15EE  087B               	movf	gpio_pin_initialize@pin_config,w
  3408     15EF  120A  158A  20E6  160A  118A  	fcall	_gpio_pin_write_logic
  3409     15F4  00FF               	movwf	btemp+1
  3410     15F5  087F               	movf	btemp+1,w
  3411     15F6  05FA               	andwf	gpio_pin_initialize@ret,f
  3412     15F7                     l4579:
  3413                           
  3414                           ;MCAL_Layer/GPIO/gpio_hal.c: 111:     return ret;
  3415     15F7  087A               	movf	gpio_pin_initialize@ret,w
  3416     15F8                     l336:
  3417     15F8  0008               	return
  3418     15F9                     __end_of_gpio_pin_initialize:
  3419                           
  3420                           	psect	text12
  3421     09DE                     __ptext12:	
  3422 ;; *************** function _gpio_pin_initialize_direction *****************
  3423 ;; Defined at:
  3424 ;;		line 8 in file "MCAL_Layer/GPIO/gpio_hal.c"
  3425 ;; Parameters:    Size  Location     Type
  3426 ;;  pin_config      1    wreg     PTR const struct .
  3427 ;;		 -> lcd1$lcd_data(4), keypad1$keypad_column_pins(4), keypad1$keypad_row_pins(4), lcd1(6), 
  3428 ;;		 -> keypad1(8), led_intialize@pin_obj(1), 
  3429 ;; Auto vars:     Size  Location     Type
  3430 ;;  pin_config      1    6[COMMON] PTR const struct .
  3431 ;;		 -> lcd1$lcd_data(4), keypad1$keypad_column_pins(4), keypad1$keypad_row_pins(4), lcd1(6), 
  3432 ;;		 -> keypad1(8), led_intialize@pin_obj(1), 
  3433 ;;  ret             1    5[COMMON] unsigned char 
  3434 ;; Return value:  Size  Location     Type
  3435 ;;                  1    wreg      unsigned char 
  3436 ;; Registers used:
  3437 ;;		wreg, fsr0l, fsr0h, status,2, status,0, btemp+1
  3438 ;; Tracked objects:
  3439 ;;		On entry : 0/0
  3440 ;;		On exit  : 0/0
  3441 ;;		Unchanged: 0/0
  3442 ;; Data sizes:     COMMON   BANK0   BANK1   BANK3   BANK2
  3443 ;;      Params:         0       0       0       0       0
  3444 ;;      Locals:         2       0       0       0       0
  3445 ;;      Temps:          5       0       0       0       0
  3446 ;;      Totals:         7       0       0       0       0
  3447 ;;Total ram usage:        7 bytes
  3448 ;; Hardware stack levels used: 1
  3449 ;; This function calls:
  3450 ;;		Nothing
  3451 ;; This function is called by:
  3452 ;;		_keypad_initialize
  3453 ;;		_gpio_pin_initialize
  3454 ;; This function uses a non-reentrant model
  3455 ;;
  3456                           
  3457     09DE                     _gpio_pin_initialize_direction:	
  3458                           ;psect for function _gpio_pin_initialize_direction
  3459                           
  3460                           
  3461                           ;incstack = 0
  3462                           ; Regs used in _gpio_pin_initialize_direction: [wreg-fsr0h+status,2+status,0+btemp+1]
  3463                           ;gpio_pin_initialize_direction@pin_config stored from wreg
  3464     09DE  00F6               	movwf	gpio_pin_initialize_direction@pin_config
  3465     09DF                     l4331:
  3466     09DF                     l4333:
  3467                           
  3468                           ;MCAL_Layer/GPIO/gpio_hal.c: 11:     if((((void*)0) == pin_config)||(pin_config->pin > 8
      +                           - 1))
  3469     09DF  0876               	movf	gpio_pin_initialize_direction@pin_config,w
  3470     09E0  1903               	btfsc	3,2
  3471     09E1  29E3               	goto	u5371
  3472     09E2  29E4               	goto	u5370
  3473     09E3                     u5371:
  3474     09E3  29F3               	goto	l4337
  3475     09E4                     u5370:
  3476     09E4                     l4335:
  3477     09E4  0876               	movf	gpio_pin_initialize_direction@pin_config,w
  3478     09E5  0084               	movwf	4
  3479     09E6  1383               	bcf	3,7	;select IRP bank0
  3480     09E7  0C00               	rrf	0,w
  3481     09E8  00F0               	movwf	??_gpio_pin_initialize_direction
  3482     09E9  0CF0               	rrf	??_gpio_pin_initialize_direction,f
  3483     09EA  0C70               	rrf	??_gpio_pin_initialize_direction,w
  3484     09EB  3907               	andlw	7
  3485     09EC  00F1               	movwf	??_gpio_pin_initialize_direction+1
  3486     09ED  3008               	movlw	8
  3487     09EE  0271               	subwf	??_gpio_pin_initialize_direction+1,w
  3488     09EF  1C03               	skipc
  3489     09F0  29F2               	goto	u5381
  3490     09F1  29F3               	goto	u5380
  3491     09F2                     u5381:
  3492     09F2  29F5               	goto	l287
  3493     09F3                     u5380:
  3494     09F3                     l4337:
  3495                           
  3496                           ;MCAL_Layer/GPIO/gpio_hal.c: 12:     {;MCAL_Layer/GPIO/gpio_hal.c: 13:         ret = (st
      +                          d_ReturnType)0x00;
  3497     09F3  01F5               	clrf	gpio_pin_initialize_direction@ret
  3498                           
  3499                           ;MCAL_Layer/GPIO/gpio_hal.c: 14:     }
  3500     09F4  2A5D               	goto	l4347
  3501     09F5                     l287:	
  3502                           ;MCAL_Layer/GPIO/gpio_hal.c: 15:     else
  3503                           
  3504                           
  3505                           ;MCAL_Layer/GPIO/gpio_hal.c: 16:     {;MCAL_Layer/GPIO/gpio_hal.c: 17:         ret = (st
      +                          d_ReturnType)0x01;
  3506     09F5  01F5               	clrf	gpio_pin_initialize_direction@ret
  3507     09F6  0AF5               	incf	gpio_pin_initialize_direction@ret,f
  3508                           
  3509                           ;MCAL_Layer/GPIO/gpio_hal.c: 18:         switch(pin_config->direction)
  3510     09F7  2A47               	goto	l4345
  3511     09F8                     l4339:
  3512                           
  3513                           ;MCAL_Layer/GPIO/gpio_hal.c: 21:                 (*tris_registers[pin_config->port] &= ~
      +                          ((uint8)0x01 << pin_config->pin));
  3514     09F8  3001               	movlw	1
  3515     09F9  00F0               	movwf	??_gpio_pin_initialize_direction
  3516     09FA  0876               	movf	gpio_pin_initialize_direction@pin_config,w
  3517     09FB  0084               	movwf	4
  3518     09FC  0C00               	rrf	0,w
  3519     09FD  00F1               	movwf	??_gpio_pin_initialize_direction+1
  3520     09FE  0CF1               	rrf	??_gpio_pin_initialize_direction+1,f
  3521     09FF  0C71               	rrf	??_gpio_pin_initialize_direction+1,w
  3522     0A00  3907               	andlw	7
  3523     0A01  3E01               	addlw	1
  3524     0A02  2A05               	goto	u5394
  3525     0A03                     u5395:
  3526     0A03  1003               	clrc
  3527     0A04  0DF0               	rlf	??_gpio_pin_initialize_direction,f
  3528     0A05                     u5394:
  3529     0A05  3EFF               	addlw	-1
  3530     0A06  1D03               	skipz
  3531     0A07  2A03               	goto	u5395
  3532     0A08  0870               	movf	??_gpio_pin_initialize_direction,w
  3533     0A09  3AFF               	xorlw	255
  3534     0A0A  00FF               	movwf	btemp+1
  3535     0A0B  0876               	movf	gpio_pin_initialize_direction@pin_config,w
  3536     0A0C  0084               	movwf	4
  3537     0A0D  0800               	movf	0,w
  3538     0A0E  3907               	andlw	7
  3539     0A0F  00F2               	movwf	??_gpio_pin_initialize_direction+2
  3540     0A10  0772               	addwf	??_gpio_pin_initialize_direction+2,w
  3541     0A11  3EAA               	addlw	(low (_tris_registers| 0))& (0+255)
  3542     0A12  0084               	movwf	4
  3543     0A13  0800               	movf	0,w
  3544     0A14  00F3               	movwf	??_gpio_pin_initialize_direction+3
  3545     0A15  0A84               	incf	4,f
  3546     0A16  0800               	movf	0,w
  3547     0A17  00F4               	movwf	??_gpio_pin_initialize_direction+4
  3548     0A18  0873               	movf	??_gpio_pin_initialize_direction+3,w
  3549     0A19  0084               	movwf	4
  3550     0A1A  1783               	bsf	3,7
  3551     0A1B  1C74               	btfss	??_gpio_pin_initialize_direction+4,0
  3552     0A1C  1383               	bcf	3,7
  3553     0A1D  087F               	movf	btemp+1,w
  3554     0A1E  0580               	andwf	0,f
  3555                           
  3556                           ;MCAL_Layer/GPIO/gpio_hal.c: 22:                 break;
  3557     0A1F  2A5D               	goto	l4347
  3558     0A20                     l4341:
  3559                           
  3560                           ;MCAL_Layer/GPIO/gpio_hal.c: 24:                 (*tris_registers[pin_config->port] |= (
      +                          (uint8)0x01 << pin_config->pin));
  3561     0A20  3001               	movlw	1
  3562     0A21  00F0               	movwf	??_gpio_pin_initialize_direction
  3563     0A22  0876               	movf	gpio_pin_initialize_direction@pin_config,w
  3564     0A23  0084               	movwf	4
  3565     0A24  0C00               	rrf	0,w
  3566     0A25  00F1               	movwf	??_gpio_pin_initialize_direction+1
  3567     0A26  0CF1               	rrf	??_gpio_pin_initialize_direction+1,f
  3568     0A27  0C71               	rrf	??_gpio_pin_initialize_direction+1,w
  3569     0A28  3907               	andlw	7
  3570     0A29  3E01               	addlw	1
  3571     0A2A  2A2D               	goto	u5404
  3572     0A2B                     u5405:
  3573     0A2B  1003               	clrc
  3574     0A2C  0DF0               	rlf	??_gpio_pin_initialize_direction,f
  3575     0A2D                     u5404:
  3576     0A2D  3EFF               	addlw	-1
  3577     0A2E  1D03               	skipz
  3578     0A2F  2A2B               	goto	u5405
  3579     0A30  0870               	movf	??_gpio_pin_initialize_direction,w
  3580     0A31  00FF               	movwf	btemp+1
  3581     0A32  0876               	movf	gpio_pin_initialize_direction@pin_config,w
  3582     0A33  0084               	movwf	4
  3583     0A34  0800               	movf	0,w
  3584     0A35  3907               	andlw	7
  3585     0A36  00F2               	movwf	??_gpio_pin_initialize_direction+2
  3586     0A37  0772               	addwf	??_gpio_pin_initialize_direction+2,w
  3587     0A38  3EAA               	addlw	(low (_tris_registers| 0))& (0+255)
  3588     0A39  0084               	movwf	4
  3589     0A3A  0800               	movf	0,w
  3590     0A3B  00F3               	movwf	??_gpio_pin_initialize_direction+3
  3591     0A3C  0A84               	incf	4,f
  3592     0A3D  0800               	movf	0,w
  3593     0A3E  00F4               	movwf	??_gpio_pin_initialize_direction+4
  3594     0A3F  0873               	movf	??_gpio_pin_initialize_direction+3,w
  3595     0A40  0084               	movwf	4
  3596     0A41  1783               	bsf	3,7
  3597     0A42  1C74               	btfss	??_gpio_pin_initialize_direction+4,0
  3598     0A43  1383               	bcf	3,7
  3599     0A44  087F               	movf	btemp+1,w
  3600     0A45  0480               	iorwf	0,f
  3601                           
  3602                           ;MCAL_Layer/GPIO/gpio_hal.c: 25:                 break;
  3603     0A46  2A5D               	goto	l4347
  3604     0A47                     l4345:
  3605     0A47  0876               	movf	gpio_pin_initialize_direction@pin_config,w
  3606     0A48  0084               	movwf	4
  3607     0A49  0E00               	swapf	0,w
  3608     0A4A  00F0               	movwf	??_gpio_pin_initialize_direction
  3609     0A4B  0CF0               	rrf	??_gpio_pin_initialize_direction,f
  3610     0A4C  0C70               	rrf	??_gpio_pin_initialize_direction,w
  3611     0A4D  3901               	andlw	1
  3612     0A4E  00F1               	movwf	??_gpio_pin_initialize_direction+1
  3613     0A4F  01F2               	clrf	??_gpio_pin_initialize_direction+2
  3614                           
  3615                           ; Switch on 2 bytes has been partitioned into a top level switch of size 1, and 1 sub-sw
      +                          itches
  3616                           ; Switch size 1, requested type "simple"
  3617                           ; Number of cases is 1, Range of values is 0 to 0
  3618                           ; switch strategies available:
  3619                           ; Name         Instructions Cycles
  3620                           ; simple_byte            4     3 (average)
  3621                           ; direct_byte           11     8 (fixed)
  3622                           ; jumptable            260     6 (fixed)
  3623                           ;	Chosen strategy is simple_byte
  3624     0A50  0872               	movf	??_gpio_pin_initialize_direction+2,w
  3625     0A51  3A00               	xorlw	0	; case 0
  3626     0A52  1903               	skipnz
  3627     0A53  2A55               	goto	l5773
  3628     0A54  29F3               	goto	l4337
  3629     0A55                     l5773:
  3630                           
  3631                           ; Switch size 1, requested type "simple"
  3632                           ; Number of cases is 2, Range of values is 0 to 1
  3633                           ; switch strategies available:
  3634                           ; Name         Instructions Cycles
  3635                           ; simple_byte            7     4 (average)
  3636                           ; direct_byte           14     8 (fixed)
  3637                           ; jumptable            260     6 (fixed)
  3638                           ;	Chosen strategy is simple_byte
  3639     0A55  0871               	movf	??_gpio_pin_initialize_direction+1,w
  3640     0A56  3A00               	xorlw	0	; case 0
  3641     0A57  1903               	skipnz
  3642     0A58  29F8               	goto	l4339
  3643     0A59  3A01               	xorlw	1	; case 1
  3644     0A5A  1903               	skipnz
  3645     0A5B  2A20               	goto	l4341
  3646     0A5C  29F3               	goto	l4337
  3647     0A5D                     l4347:
  3648                           
  3649                           ;MCAL_Layer/GPIO/gpio_hal.c: 30:     return ret;
  3650     0A5D  0875               	movf	gpio_pin_initialize_direction@ret,w
  3651     0A5E                     l296:
  3652     0A5E  0008               	return
  3653     0A5F                     __end_of_gpio_pin_initialize_direction:
  3654                           
  3655                           	psect	text13
  3656     0961                     __ptext13:	
  3657 ;; *************** function _keypad_get_value *****************
  3658 ;; Defined at:
  3659 ;;		line 31 in file "ECU/Keypad/ecu_keypad.c"
  3660 ;; Parameters:    Size  Location     Type
  3661 ;;  keypad          1    wreg     PTR struct .
  3662 ;;		 -> keypad1(8), 
  3663 ;;  value           1    8[COMMON] PTR unsigned char 
  3664 ;;		 -> key_value(1), 
  3665 ;; Auto vars:     Size  Location     Type
  3666 ;;  keypad          1    5[BANK0 ] PTR struct .
  3667 ;;		 -> keypad1(8), 
  3668 ;;  columns_coun    1    4[BANK0 ] unsigned char 
  3669 ;;  row_counter     1    3[BANK0 ] unsigned char 
  3670 ;;  counter         1    2[BANK0 ] unsigned char 
  3671 ;;  col_logic       1    1[BANK0 ] enum E1501
  3672 ;;  ret             1    0[BANK0 ] unsigned char 
  3673 ;; Return value:  Size  Location     Type
  3674 ;;                  1    wreg      unsigned char 
  3675 ;; Registers used:
  3676 ;;		wreg, fsr0l, fsr0h, status,2, status,0, btemp+1, pclath, cstack
  3677 ;; Tracked objects:
  3678 ;;		On entry : 0/0
  3679 ;;		On exit  : 0/0
  3680 ;;		Unchanged: 0/0
  3681 ;; Data sizes:     COMMON   BANK0   BANK1   BANK3   BANK2
  3682 ;;      Params:         1       0       0       0       0
  3683 ;;      Locals:         0       6       0       0       0
  3684 ;;      Temps:          2       0       0       0       0
  3685 ;;      Totals:         3       6       0       0       0
  3686 ;;Total ram usage:        9 bytes
  3687 ;; Hardware stack levels used: 1
  3688 ;; Hardware stack levels required when called: 1
  3689 ;; This function calls:
  3690 ;;		_gpio_pin_read_logic
  3691 ;;		_gpio_pin_write_logic
  3692 ;; This function is called by:
  3693 ;;		_main
  3694 ;; This function uses a non-reentrant model
  3695 ;;
  3696                           
  3697     0961                     _keypad_get_value:	
  3698                           ;psect for function _keypad_get_value
  3699                           
  3700                           
  3701                           ;incstack = 0
  3702                           ; Regs used in _keypad_get_value: [wreg-fsr0h+status,2+status,0+btemp+1+pclath+cstack]
  3703                           ;keypad_get_value@keypad stored from wreg
  3704     0961  1283               	bcf	3,5	;RP0=0, select bank0
  3705     0962  1303               	bcf	3,6	;RP1=0, select bank0
  3706     0963  00A5               	movwf	keypad_get_value@keypad
  3707     0964                     l5249:
  3708                           
  3709                           ;ECU/Keypad/ecu_keypad.c: 34:     uint8 row_counter = 0;
  3710     0964  01A3               	clrf	keypad_get_value@row_counter
  3711                           
  3712                           ;ECU/Keypad/ecu_keypad.c: 35:     uint8 columns_counter = 0;
  3713     0965  01A4               	clrf	keypad_get_value@columns_counter
  3714                           
  3715                           ;ECU/Keypad/ecu_keypad.c: 36:     uint8 counter = 0;
  3716     0966  01A2               	clrf	keypad_get_value@counter
  3717     0967                     l5251:
  3718                           
  3719                           ;ECU/Keypad/ecu_keypad.c: 37:     logic_t col_logic;;ECU/Keypad/ecu_keypad.c: 38:     if
      +                          ((((void*)0) == keypad)||(((void*)0) == value))
  3720     0967  0825               	movf	keypad_get_value@keypad,w
  3721     0968  1903               	btfsc	3,2
  3722     0969  296B               	goto	u7121
  3723     096A  296C               	goto	u7120
  3724     096B                     u7121:
  3725     096B  2971               	goto	l5255
  3726     096C                     u7120:
  3727     096C                     l5253:
  3728     096C  0878               	movf	keypad_get_value@value,w
  3729     096D  1D03               	btfss	3,2
  3730     096E  2970               	goto	u7131
  3731     096F  2971               	goto	u7130
  3732     0970                     u7131:
  3733     0970  2972               	goto	l215
  3734     0971                     u7130:
  3735     0971                     l5255:
  3736                           
  3737                           ;ECU/Keypad/ecu_keypad.c: 41:     }
  3738     0971  29DD               	goto	l226
  3739     0972                     l215:	
  3740                           ;ECU/Keypad/ecu_keypad.c: 42:     else
  3741                           
  3742                           
  3743                           ;ECU/Keypad/ecu_keypad.c: 43:     {;ECU/Keypad/ecu_keypad.c: 44:         ret = (std_Retu
      +                          rnType)0x01;
  3744     0972  01A0               	clrf	keypad_get_value@ret
  3745     0973  0AA0               	incf	keypad_get_value@ret,f
  3746     0974                     l5257:
  3747                           
  3748                           ;ECU/Keypad/ecu_keypad.c: 45:         for(row_counter = 0; row_counter < 4; row_counter+
      +                          +)
  3749     0974  01A3               	clrf	keypad_get_value@row_counter
  3750     0975                     l5263:
  3751                           
  3752                           ;ECU/Keypad/ecu_keypad.c: 46:         {;ECU/Keypad/ecu_keypad.c: 47:             for(cou
      +                          nter = 0; counter < 4; counter++)
  3753     0975  01A2               	clrf	keypad_get_value@counter
  3754     0976                     l5269:
  3755                           
  3756                           ;ECU/Keypad/ecu_keypad.c: 48:                ret &= gpio_pin_write_logic(&(keypad->keypa
      +                          d_row_pins[counter]), GPIO_LOW);
  3757     0976  01F0               	clrf	gpio_pin_write_logic@logic
  3758     0977  0822               	movf	keypad_get_value@counter,w
  3759     0978  0725               	addwf	keypad_get_value@keypad,w
  3760     0979  120A  158A  20E6  120A  158A  	fcall	_gpio_pin_write_logic
  3761     097E  00FF               	movwf	btemp+1
  3762     097F  087F               	movf	btemp+1,w
  3763     0980  1283               	bcf	3,5	;RP0=0, select bank0
  3764     0981  1303               	bcf	3,6	;RP1=0, select bank0
  3765     0982  05A0               	andwf	keypad_get_value@ret,f
  3766     0983                     l5271:
  3767     0983  3001               	movlw	1
  3768     0984  00FF               	movwf	btemp+1
  3769     0985  087F               	movf	btemp+1,w
  3770     0986  07A2               	addwf	keypad_get_value@counter,f
  3771     0987                     l5273:
  3772     0987  3004               	movlw	4
  3773     0988  0222               	subwf	keypad_get_value@counter,w
  3774     0989  1C03               	skipc
  3775     098A  298C               	goto	u7141
  3776     098B  298D               	goto	u7140
  3777     098C                     u7141:
  3778     098C  2976               	goto	l5269
  3779     098D                     u7140:
  3780     098D                     l5275:
  3781                           
  3782                           ;ECU/Keypad/ecu_keypad.c: 50:             ret &= gpio_pin_write_logic(&(keypad->keypad_r
      +                          ow_pins[row_counter]), GPIO_HIGH);
  3783     098D  01F0               	clrf	gpio_pin_write_logic@logic
  3784     098E  0AF0               	incf	gpio_pin_write_logic@logic,f
  3785     098F  0823               	movf	keypad_get_value@row_counter,w
  3786     0990  0725               	addwf	keypad_get_value@keypad,w
  3787     0991  120A  158A  20E6  120A  158A  	fcall	_gpio_pin_write_logic
  3788     0996  00FF               	movwf	btemp+1
  3789     0997  087F               	movf	btemp+1,w
  3790     0998  1283               	bcf	3,5	;RP0=0, select bank0
  3791     0999  1303               	bcf	3,6	;RP1=0, select bank0
  3792     099A  05A0               	andwf	keypad_get_value@ret,f
  3793     099B                     l5277:
  3794                           
  3795                           ;ECU/Keypad/ecu_keypad.c: 52:             for(columns_counter = 0; columns_counter < 4; 
      +                          columns_counter++)
  3796     099B  01A4               	clrf	keypad_get_value@columns_counter
  3797     099C                     l5283:
  3798                           
  3799                           ;ECU/Keypad/ecu_keypad.c: 53:             {;ECU/Keypad/ecu_keypad.c: 54:                
      +                           ret &= gpio_pin_read_logic(&(keypad->keypad_column_pins[columns_counter]), &col_logic);
  3800     099C  3021               	movlw	(low (keypad_get_value@col_logic| 0))& (0+255)
  3801     099D  00F0               	movwf	gpio_pin_read_logic@logic
  3802     099E  0824               	movf	keypad_get_value@columns_counter,w
  3803     099F  0725               	addwf	keypad_get_value@keypad,w
  3804     09A0  3E04               	addlw	4
  3805     09A1  160A  118A  2670  120A  158A  	fcall	_gpio_pin_read_logic
  3806     09A6  00FF               	movwf	btemp+1
  3807     09A7  087F               	movf	btemp+1,w
  3808     09A8  1283               	bcf	3,5	;RP0=0, select bank0
  3809     09A9  1303               	bcf	3,6	;RP1=0, select bank0
  3810     09AA  05A0               	andwf	keypad_get_value@ret,f
  3811     09AB                     l5285:
  3812                           
  3813                           ;ECU/Keypad/ecu_keypad.c: 55:                 if(GPIO_HIGH == col_logic)
  3814     09AB  0321               	decf	keypad_get_value@col_logic,w
  3815     09AC  1D03               	btfss	3,2
  3816     09AD  29AF               	goto	u7151
  3817     09AE  29B0               	goto	u7150
  3818     09AF                     u7151:
  3819     09AF  29C9               	goto	l5289
  3820     09B0                     u7150:
  3821     09B0                     l5287:
  3822                           
  3823                           ;ECU/Keypad/ecu_keypad.c: 56:                 {;ECU/Keypad/ecu_keypad.c: 57:            
      +                                   *value = keypad_btns[row_counter][columns_counter];
  3824     09B0  0823               	movf	keypad_get_value@row_counter,w
  3825     09B1  00F9               	movwf	??_keypad_get_value
  3826     09B2  3002               	movlw	2
  3827     09B3                     u7165:
  3828     09B3  1003               	clrc
  3829     09B4  0DF9               	rlf	??_keypad_get_value,f
  3830     09B5  3EFF               	addlw	-1
  3831     09B6  1D03               	skipz
  3832     09B7  29B3               	goto	u7165
  3833     09B8  3001               	movlw	(low ((_keypad_btns-__stringbase)| (0+32768)))& (0+255)
  3834     09B9  0779               	addwf	??_keypad_get_value,w
  3835     09BA  00FA               	movwf	??_keypad_get_value+1
  3836     09BB  0824               	movf	keypad_get_value@columns_counter,w
  3837     09BC  077A               	addwf	??_keypad_get_value+1,w
  3838     09BD  0084               	movwf	4
  3839     09BE  160A  118A  200A  120A  158A  	fcall	stringdir
  3840     09C3  00FF               	movwf	btemp+1
  3841     09C4  0878               	movf	keypad_get_value@value,w
  3842     09C5  0084               	movwf	4
  3843     09C6  087F               	movf	btemp+1,w
  3844     09C7  1383               	bcf	3,7	;select IRP bank0
  3845     09C8  0080               	movwf	0
  3846     09C9                     l5289:
  3847                           
  3848                           ;ECU/Keypad/ecu_keypad.c: 59:             }
  3849     09C9  3001               	movlw	1
  3850     09CA  00FF               	movwf	btemp+1
  3851     09CB  087F               	movf	btemp+1,w
  3852     09CC  07A4               	addwf	keypad_get_value@columns_counter,f
  3853     09CD                     l5291:
  3854     09CD  3004               	movlw	4
  3855     09CE  0224               	subwf	keypad_get_value@columns_counter,w
  3856     09CF  1C03               	skipc
  3857     09D0  29D2               	goto	u7171
  3858     09D1  29D3               	goto	u7170
  3859     09D2                     u7171:
  3860     09D2  299C               	goto	l5283
  3861     09D3                     u7170:
  3862     09D3                     l5293:
  3863                           
  3864                           ;ECU/Keypad/ecu_keypad.c: 60:         }
  3865     09D3  3001               	movlw	1
  3866     09D4  00FF               	movwf	btemp+1
  3867     09D5  087F               	movf	btemp+1,w
  3868     09D6  07A3               	addwf	keypad_get_value@row_counter,f
  3869     09D7                     l5295:
  3870     09D7  3004               	movlw	4
  3871     09D8  0223               	subwf	keypad_get_value@row_counter,w
  3872     09D9  1C03               	skipc
  3873     09DA  29DC               	goto	u7181
  3874     09DB  29DD               	goto	u7180
  3875     09DC                     u7181:
  3876     09DC  2975               	goto	l5263
  3877     09DD                     u7180:
  3878     09DD                     l226:
  3879     09DD  0008               	return
  3880     09DE                     __end_of_keypad_get_value:
  3881                           
  3882                           	psect	text14
  3883     08E6                     __ptext14:	
  3884 ;; *************** function _gpio_pin_write_logic *****************
  3885 ;; Defined at:
  3886 ;;		line 46 in file "MCAL_Layer/GPIO/gpio_hal.c"
  3887 ;; Parameters:    Size  Location     Type
  3888 ;;  pin_config      1    wreg     PTR const struct .
  3889 ;;		 -> lcd1$lcd_data(4), keypad1$keypad_row_pins(4), lcd1(6), keypad1(8), 
  3890 ;;		 -> led_turn_on@pin_obj(1), led_turn_off@pin_obj(1), led_intialize@pin_obj(1), 
  3891 ;;  logic           1    0[COMMON] enum E1501
  3892 ;; Auto vars:     Size  Location     Type
  3893 ;;  pin_config      1    7[COMMON] PTR const struct .
  3894 ;;		 -> lcd1$lcd_data(4), keypad1$keypad_row_pins(4), lcd1(6), keypad1(8), 
  3895 ;;		 -> led_turn_on@pin_obj(1), led_turn_off@pin_obj(1), led_intialize@pin_obj(1), 
  3896 ;;  ret             1    6[COMMON] unsigned char 
  3897 ;; Return value:  Size  Location     Type
  3898 ;;                  1    wreg      unsigned char 
  3899 ;; Registers used:
  3900 ;;		wreg, fsr0l, fsr0h, status,2, status,0, btemp+1
  3901 ;; Tracked objects:
  3902 ;;		On entry : 0/0
  3903 ;;		On exit  : 0/0
  3904 ;;		Unchanged: 0/0
  3905 ;; Data sizes:     COMMON   BANK0   BANK1   BANK3   BANK2
  3906 ;;      Params:         1       0       0       0       0
  3907 ;;      Locals:         2       0       0       0       0
  3908 ;;      Temps:          5       0       0       0       0
  3909 ;;      Totals:         8       0       0       0       0
  3910 ;;Total ram usage:        8 bytes
  3911 ;; Hardware stack levels used: 1
  3912 ;; This function calls:
  3913 ;;		Nothing
  3914 ;; This function is called by:
  3915 ;;		_lcd_4bit_send_command
  3916 ;;		_lcd_4bit_send_char_data
  3917 ;;		_lcd_4bit_send_char_data_pos
  3918 ;;		_lcd_send_4bit
  3919 ;;		_lcd_4bit_send_enable_signal
  3920 ;;		_keypad_get_value
  3921 ;;		_gpio_pin_initialize
  3922 ;;		_lcd_8bit_send_command
  3923 ;;		_lcd_8bit_send_char_data
  3924 ;;		_lcd_8bit_send_enable_signal
  3925 ;;		_led_turn_off
  3926 ;;		_led_turn_on
  3927 ;; This function uses a non-reentrant model
  3928 ;;
  3929                           
  3930     08E6                     _gpio_pin_write_logic:	
  3931                           ;psect for function _gpio_pin_write_logic
  3932                           
  3933                           
  3934                           ;incstack = 0
  3935                           ; Regs used in _gpio_pin_write_logic: [wreg-fsr0h+status,2+status,0+btemp+1]
  3936                           ;gpio_pin_write_logic@pin_config stored from wreg
  3937     08E6  00F7               	movwf	gpio_pin_write_logic@pin_config
  3938     08E7                     l4269:
  3939     08E7                     l4271:
  3940                           
  3941                           ;MCAL_Layer/GPIO/gpio_hal.c: 49:     if((((void*)0) == pin_config)||(pin_config->pin > 8
      +                           - 1))
  3942     08E7  0877               	movf	gpio_pin_write_logic@pin_config,w
  3943     08E8  1903               	btfsc	3,2
  3944     08E9  28EB               	goto	u5271
  3945     08EA  28EC               	goto	u5270
  3946     08EB                     u5271:
  3947     08EB  28FB               	goto	l4275
  3948     08EC                     u5270:
  3949     08EC                     l4273:
  3950     08EC  0877               	movf	gpio_pin_write_logic@pin_config,w
  3951     08ED  0084               	movwf	4
  3952     08EE  1383               	bcf	3,7	;select IRP bank0
  3953     08EF  0C00               	rrf	0,w
  3954     08F0  00F1               	movwf	??_gpio_pin_write_logic
  3955     08F1  0CF1               	rrf	??_gpio_pin_write_logic,f
  3956     08F2  0C71               	rrf	??_gpio_pin_write_logic,w
  3957     08F3  3907               	andlw	7
  3958     08F4  00F2               	movwf	??_gpio_pin_write_logic+1
  3959     08F5  3008               	movlw	8
  3960     08F6  0272               	subwf	??_gpio_pin_write_logic+1,w
  3961     08F7  1C03               	skipc
  3962     08F8  28FA               	goto	u5281
  3963     08F9  28FB               	goto	u5280
  3964     08FA                     u5281:
  3965     08FA  28FD               	goto	l306
  3966     08FB                     u5280:
  3967     08FB                     l4275:
  3968                           
  3969                           ;MCAL_Layer/GPIO/gpio_hal.c: 50:     {;MCAL_Layer/GPIO/gpio_hal.c: 51:         ret = (st
      +                          d_ReturnType)0x00;
  3970     08FB  01F6               	clrf	gpio_pin_write_logic@ret
  3971                           
  3972                           ;MCAL_Layer/GPIO/gpio_hal.c: 52:     }
  3973     08FC  295F               	goto	l4285
  3974     08FD                     l306:	
  3975                           ;MCAL_Layer/GPIO/gpio_hal.c: 53:     else
  3976                           
  3977                           
  3978                           ;MCAL_Layer/GPIO/gpio_hal.c: 54:     {;MCAL_Layer/GPIO/gpio_hal.c: 55:         ret = (st
      +                          d_ReturnType)0x01;
  3979     08FD  01F6               	clrf	gpio_pin_write_logic@ret
  3980     08FE  0AF6               	incf	gpio_pin_write_logic@ret,f
  3981                           
  3982                           ;MCAL_Layer/GPIO/gpio_hal.c: 56:         switch(logic)
  3983     08FF  294F               	goto	l4283
  3984     0900                     l4277:
  3985                           
  3986                           ;MCAL_Layer/GPIO/gpio_hal.c: 59:                 (*port_registers[pin_config->port] &= ~
      +                          ((uint8)0x01 << pin_config->pin));
  3987     0900  3001               	movlw	1
  3988     0901  00F1               	movwf	??_gpio_pin_write_logic
  3989     0902  0877               	movf	gpio_pin_write_logic@pin_config,w
  3990     0903  0084               	movwf	4
  3991     0904  0C00               	rrf	0,w
  3992     0905  00F2               	movwf	??_gpio_pin_write_logic+1
  3993     0906  0CF2               	rrf	??_gpio_pin_write_logic+1,f
  3994     0907  0C72               	rrf	??_gpio_pin_write_logic+1,w
  3995     0908  3907               	andlw	7
  3996     0909  3E01               	addlw	1
  3997     090A  290D               	goto	u5294
  3998     090B                     u5295:
  3999     090B  1003               	clrc
  4000     090C  0DF1               	rlf	??_gpio_pin_write_logic,f
  4001     090D                     u5294:
  4002     090D  3EFF               	addlw	-1
  4003     090E  1D03               	skipz
  4004     090F  290B               	goto	u5295
  4005     0910  0871               	movf	??_gpio_pin_write_logic,w
  4006     0911  3AFF               	xorlw	255
  4007     0912  00FF               	movwf	btemp+1
  4008     0913  0877               	movf	gpio_pin_write_logic@pin_config,w
  4009     0914  0084               	movwf	4
  4010     0915  0800               	movf	0,w
  4011     0916  3907               	andlw	7
  4012     0917  00F3               	movwf	??_gpio_pin_write_logic+2
  4013     0918  0773               	addwf	??_gpio_pin_write_logic+2,w
  4014     0919  3EA0               	addlw	(low (_port_registers| 0))& (0+255)
  4015     091A  0084               	movwf	4
  4016     091B  0800               	movf	0,w
  4017     091C  00F4               	movwf	??_gpio_pin_write_logic+3
  4018     091D  0A84               	incf	4,f
  4019     091E  0800               	movf	0,w
  4020     091F  00F5               	movwf	??_gpio_pin_write_logic+4
  4021     0920  0874               	movf	??_gpio_pin_write_logic+3,w
  4022     0921  0084               	movwf	4
  4023     0922  1783               	bsf	3,7
  4024     0923  1C75               	btfss	??_gpio_pin_write_logic+4,0
  4025     0924  1383               	bcf	3,7
  4026     0925  087F               	movf	btemp+1,w
  4027     0926  0580               	andwf	0,f
  4028                           
  4029                           ;MCAL_Layer/GPIO/gpio_hal.c: 60:                 break;
  4030     0927  295F               	goto	l4285
  4031     0928                     l4279:
  4032                           
  4033                           ;MCAL_Layer/GPIO/gpio_hal.c: 62:                 (*port_registers[pin_config->port] |= (
      +                          (uint8)0x01 << pin_config->pin));
  4034     0928  3001               	movlw	1
  4035     0929  00F1               	movwf	??_gpio_pin_write_logic
  4036     092A  0877               	movf	gpio_pin_write_logic@pin_config,w
  4037     092B  0084               	movwf	4
  4038     092C  0C00               	rrf	0,w
  4039     092D  00F2               	movwf	??_gpio_pin_write_logic+1
  4040     092E  0CF2               	rrf	??_gpio_pin_write_logic+1,f
  4041     092F  0C72               	rrf	??_gpio_pin_write_logic+1,w
  4042     0930  3907               	andlw	7
  4043     0931  3E01               	addlw	1
  4044     0932  2935               	goto	u5304
  4045     0933                     u5305:
  4046     0933  1003               	clrc
  4047     0934  0DF1               	rlf	??_gpio_pin_write_logic,f
  4048     0935                     u5304:
  4049     0935  3EFF               	addlw	-1
  4050     0936  1D03               	skipz
  4051     0937  2933               	goto	u5305
  4052     0938  0871               	movf	??_gpio_pin_write_logic,w
  4053     0939  00FF               	movwf	btemp+1
  4054     093A  0877               	movf	gpio_pin_write_logic@pin_config,w
  4055     093B  0084               	movwf	4
  4056     093C  0800               	movf	0,w
  4057     093D  3907               	andlw	7
  4058     093E  00F3               	movwf	??_gpio_pin_write_logic+2
  4059     093F  0773               	addwf	??_gpio_pin_write_logic+2,w
  4060     0940  3EA0               	addlw	(low (_port_registers| 0))& (0+255)
  4061     0941  0084               	movwf	4
  4062     0942  0800               	movf	0,w
  4063     0943  00F4               	movwf	??_gpio_pin_write_logic+3
  4064     0944  0A84               	incf	4,f
  4065     0945  0800               	movf	0,w
  4066     0946  00F5               	movwf	??_gpio_pin_write_logic+4
  4067     0947  0874               	movf	??_gpio_pin_write_logic+3,w
  4068     0948  0084               	movwf	4
  4069     0949  1783               	bsf	3,7
  4070     094A  1C75               	btfss	??_gpio_pin_write_logic+4,0
  4071     094B  1383               	bcf	3,7
  4072     094C  087F               	movf	btemp+1,w
  4073     094D  0480               	iorwf	0,f
  4074                           
  4075                           ;MCAL_Layer/GPIO/gpio_hal.c: 63:                 break;
  4076     094E  295F               	goto	l4285
  4077     094F                     l4283:
  4078     094F  0870               	movf	gpio_pin_write_logic@logic,w
  4079     0950  00F1               	movwf	??_gpio_pin_write_logic
  4080     0951  01F2               	clrf	??_gpio_pin_write_logic+1
  4081                           
  4082                           ; Switch on 2 bytes has been partitioned into a top level switch of size 1, and 1 sub-sw
      +                          itches
  4083                           ; Switch size 1, requested type "simple"
  4084                           ; Number of cases is 1, Range of values is 0 to 0
  4085                           ; switch strategies available:
  4086                           ; Name         Instructions Cycles
  4087                           ; simple_byte            4     3 (average)
  4088                           ; direct_byte           11     8 (fixed)
  4089                           ; jumptable            260     6 (fixed)
  4090                           ;	Chosen strategy is simple_byte
  4091     0952  0872               	movf	??_gpio_pin_write_logic+1,w
  4092     0953  3A00               	xorlw	0	; case 0
  4093     0954  1903               	skipnz
  4094     0955  2957               	goto	l5775
  4095     0956  28FB               	goto	l4275
  4096     0957                     l5775:
  4097                           
  4098                           ; Switch size 1, requested type "simple"
  4099                           ; Number of cases is 2, Range of values is 0 to 1
  4100                           ; switch strategies available:
  4101                           ; Name         Instructions Cycles
  4102                           ; simple_byte            7     4 (average)
  4103                           ; direct_byte           14     8 (fixed)
  4104                           ; jumptable            260     6 (fixed)
  4105                           ;	Chosen strategy is simple_byte
  4106     0957  0871               	movf	??_gpio_pin_write_logic,w
  4107     0958  3A00               	xorlw	0	; case 0
  4108     0959  1903               	skipnz
  4109     095A  2900               	goto	l4277
  4110     095B  3A01               	xorlw	1	; case 1
  4111     095C  1903               	skipnz
  4112     095D  2928               	goto	l4279
  4113     095E  28FB               	goto	l4275
  4114     095F                     l4285:
  4115                           
  4116                           ;MCAL_Layer/GPIO/gpio_hal.c: 68:     return ret;
  4117     095F  0876               	movf	gpio_pin_write_logic@ret,w
  4118     0960                     l315:
  4119     0960  0008               	return
  4120     0961                     __end_of_gpio_pin_write_logic:
  4121                           
  4122                           	psect	text15
  4123     1670                     __ptext15:	
  4124 ;; *************** function _gpio_pin_read_logic *****************
  4125 ;; Defined at:
  4126 ;;		line 70 in file "MCAL_Layer/GPIO/gpio_hal.c"
  4127 ;; Parameters:    Size  Location     Type
  4128 ;;  pin_config      1    wreg     PTR const struct .
  4129 ;;		 -> keypad1$keypad_column_pins(4), keypad1(8), 
  4130 ;;  logic           1    0[COMMON] PTR enum E1501
  4131 ;;		 -> keypad_get_value@col_logic(1), 
  4132 ;; Auto vars:     Size  Location     Type
  4133 ;;  pin_config      1    7[COMMON] PTR const struct .
  4134 ;;		 -> keypad1$keypad_column_pins(4), keypad1(8), 
  4135 ;;  ret             1    6[COMMON] unsigned char 
  4136 ;; Return value:  Size  Location     Type
  4137 ;;                  1    wreg      unsigned char 
  4138 ;; Registers used:
  4139 ;;		wreg, fsr0l, fsr0h, status,2, status,0, btemp+1
  4140 ;; Tracked objects:
  4141 ;;		On entry : 0/0
  4142 ;;		On exit  : 0/0
  4143 ;;		Unchanged: 0/0
  4144 ;; Data sizes:     COMMON   BANK0   BANK1   BANK3   BANK2
  4145 ;;      Params:         1       0       0       0       0
  4146 ;;      Locals:         2       0       0       0       0
  4147 ;;      Temps:          5       0       0       0       0
  4148 ;;      Totals:         8       0       0       0       0
  4149 ;;Total ram usage:        8 bytes
  4150 ;; Hardware stack levels used: 1
  4151 ;; This function calls:
  4152 ;;		Nothing
  4153 ;; This function is called by:
  4154 ;;		_keypad_get_value
  4155 ;; This function uses a non-reentrant model
  4156 ;;
  4157                           
  4158     1670                     _gpio_pin_read_logic:	
  4159                           ;psect for function _gpio_pin_read_logic
  4160                           
  4161                           
  4162                           ;incstack = 0
  4163                           ; Regs used in _gpio_pin_read_logic: [wreg-fsr0h+status,2+status,0+btemp+1]
  4164                           ;gpio_pin_read_logic@pin_config stored from wreg
  4165     1670  00F7               	movwf	gpio_pin_read_logic@pin_config
  4166     1671                     l4659:
  4167     1671                     l4661:
  4168                           
  4169                           ;MCAL_Layer/GPIO/gpio_hal.c: 73:     if((((void*)0) == pin_config)||(((void*)0) == logic
      +                          )||(pin_config->pin > 8 - 1))
  4170     1671  0877               	movf	gpio_pin_read_logic@pin_config,w
  4171     1672  1903               	btfsc	3,2
  4172     1673  2E75               	goto	u5991
  4173     1674  2E76               	goto	u5990
  4174     1675                     u5991:
  4175     1675  2E8A               	goto	l4667
  4176     1676                     u5990:
  4177     1676                     l4663:
  4178     1676  0870               	movf	gpio_pin_read_logic@logic,w
  4179     1677  1903               	btfsc	3,2
  4180     1678  2E7A               	goto	u6001
  4181     1679  2E7B               	goto	u6000
  4182     167A                     u6001:
  4183     167A  2E8A               	goto	l4667
  4184     167B                     u6000:
  4185     167B                     l4665:
  4186     167B  0877               	movf	gpio_pin_read_logic@pin_config,w
  4187     167C  0084               	movwf	4
  4188     167D  1383               	bcf	3,7	;select IRP bank0
  4189     167E  0C00               	rrf	0,w
  4190     167F  00F1               	movwf	??_gpio_pin_read_logic
  4191     1680  0CF1               	rrf	??_gpio_pin_read_logic,f
  4192     1681  0C71               	rrf	??_gpio_pin_read_logic,w
  4193     1682  3907               	andlw	7
  4194     1683  00F2               	movwf	??_gpio_pin_read_logic+1
  4195     1684  3008               	movlw	8
  4196     1685  0272               	subwf	??_gpio_pin_read_logic+1,w
  4197     1686  1C03               	skipc
  4198     1687  2E89               	goto	u6011
  4199     1688  2E8A               	goto	u6010
  4200     1689                     u6011:
  4201     1689  2E8C               	goto	l4669
  4202     168A                     u6010:
  4203     168A                     l4667:
  4204                           
  4205                           ;MCAL_Layer/GPIO/gpio_hal.c: 74:     {;MCAL_Layer/GPIO/gpio_hal.c: 75:         ret = (st
      +                          d_ReturnType)0x00;
  4206     168A  01F6               	clrf	gpio_pin_read_logic@ret
  4207                           
  4208                           ;MCAL_Layer/GPIO/gpio_hal.c: 76:     }
  4209     168B  2EB8               	goto	l4673
  4210     168C                     l4669:
  4211                           
  4212                           ;MCAL_Layer/GPIO/gpio_hal.c: 78:     {;MCAL_Layer/GPIO/gpio_hal.c: 79:         *logic = 
      +                          ((*port_registers[pin_config->port] >> pin_config->pin) & (uint8)0x01);
  4213     168C  0877               	movf	gpio_pin_read_logic@pin_config,w
  4214     168D  0084               	movwf	4
  4215     168E  0800               	movf	0,w
  4216     168F  3907               	andlw	7
  4217     1690  00F1               	movwf	??_gpio_pin_read_logic
  4218     1691  0771               	addwf	??_gpio_pin_read_logic,w
  4219     1692  3EA0               	addlw	(low (_port_registers| 0))& (0+255)
  4220     1693  0084               	movwf	4
  4221     1694  0800               	movf	0,w
  4222     1695  00F2               	movwf	??_gpio_pin_read_logic+1
  4223     1696  0A84               	incf	4,f
  4224     1697  0800               	movf	0,w
  4225     1698  00F3               	movwf	??_gpio_pin_read_logic+2
  4226     1699  0872               	movf	??_gpio_pin_read_logic+1,w
  4227     169A  0084               	movwf	4
  4228     169B  1783               	bsf	3,7
  4229     169C  1C73               	btfss	??_gpio_pin_read_logic+2,0
  4230     169D  1383               	bcf	3,7
  4231     169E  0800               	movf	0,w
  4232     169F  00F4               	movwf	??_gpio_pin_read_logic+3
  4233     16A0  0877               	movf	gpio_pin_read_logic@pin_config,w
  4234     16A1  0084               	movwf	4
  4235     16A2  1383               	bcf	3,7	;select IRP bank0
  4236     16A3  0C00               	rrf	0,w
  4237     16A4  00F5               	movwf	??_gpio_pin_read_logic+4
  4238     16A5  0CF5               	rrf	??_gpio_pin_read_logic+4,f
  4239     16A6  0C75               	rrf	??_gpio_pin_read_logic+4,w
  4240     16A7  3907               	andlw	7
  4241     16A8  3E01               	addlw	1
  4242     16A9  2EAC               	goto	u6024
  4243     16AA                     u6025:
  4244     16AA  1003               	clrc
  4245     16AB  0CF4               	rrf	??_gpio_pin_read_logic+3,f
  4246     16AC                     u6024:
  4247     16AC  3EFF               	addlw	-1
  4248     16AD  1D03               	skipz
  4249     16AE  2EAA               	goto	u6025
  4250     16AF  0874               	movf	??_gpio_pin_read_logic+3,w
  4251     16B0  3901               	andlw	1
  4252     16B1  00FF               	movwf	btemp+1
  4253     16B2  0870               	movf	gpio_pin_read_logic@logic,w
  4254     16B3  0084               	movwf	4
  4255     16B4  087F               	movf	btemp+1,w
  4256     16B5  0080               	movwf	0
  4257     16B6                     l4671:
  4258                           
  4259                           ;MCAL_Layer/GPIO/gpio_hal.c: 80:         ret = (std_ReturnType)0x01;
  4260     16B6  01F6               	clrf	gpio_pin_read_logic@ret
  4261     16B7  0AF6               	incf	gpio_pin_read_logic@ret,f
  4262     16B8                     l4673:
  4263                           
  4264                           ;MCAL_Layer/GPIO/gpio_hal.c: 82:     return ret;
  4265     16B8  0876               	movf	gpio_pin_read_logic@ret,w
  4266     16B9                     l322:
  4267     16B9  0008               	return
  4268     16BA                     __end_of_gpio_pin_read_logic:
  4269                           
  4270                           	psect	text16
  4271     0C88                     __ptext16:	
  4272 ;; *************** function _convert_float_to_string *****************
  4273 ;; Defined at:
  4274 ;;		line 368 in file "ECU/Chr_LCD/ecu_chr_lcd.c"
  4275 ;; Parameters:    Size  Location     Type
  4276 ;;  num             4   38[BANK0 ] float 
  4277 ;;  str             1   42[BANK0 ] PTR unsigned char 
  4278 ;;		 -> res_str(11), 
  4279 ;; Auto vars:     Size  Location     Type
  4280 ;;  i               1   49[BANK0 ] unsigned char 
  4281 ;;  fractional_p    4   50[BANK0 ] float 
  4282 ;;  index           1   56[BANK0 ] unsigned char 
  4283 ;;  ch              1   55[BANK0 ] unsigned char 
  4284 ;;  temp            1   54[BANK0 ] unsigned char 
  4285 ;;  integer_part    1   48[BANK0 ] unsigned char 
  4286 ;;  findone         1   47[BANK0 ] unsigned char 
  4287 ;;  ret             1    0        unsigned char 
  4288 ;; Return value:  Size  Location     Type
  4289 ;;                  1    wreg      unsigned char 
  4290 ;; Registers used:
  4291 ;;		wreg, fsr0l, fsr0h, status,2, status,0, btemp+1, pclath, cstack
  4292 ;; Tracked objects:
  4293 ;;		On entry : 0/0
  4294 ;;		On exit  : 0/0
  4295 ;;		Unchanged: 0/0
  4296 ;; Data sizes:     COMMON   BANK0   BANK1   BANK3   BANK2
  4297 ;;      Params:         0       5       0       0       0
  4298 ;;      Locals:         0      10       0       0       0
  4299 ;;      Temps:          0       4       0       0       0
  4300 ;;      Totals:         0      19       0       0       0
  4301 ;;Total ram usage:       19 bytes
  4302 ;; Hardware stack levels used: 1
  4303 ;; Hardware stack levels required when called: 2
  4304 ;; This function calls:
  4305 ;;		___awdiv
  4306 ;;		___flge
  4307 ;;		___flmul
  4308 ;;		___flsub
  4309 ;;		___fltol
  4310 ;;		___lbdiv
  4311 ;;		___lbmod
  4312 ;;		___xxtofl
  4313 ;; This function is called by:
  4314 ;;		_main
  4315 ;; This function uses a non-reentrant model
  4316 ;;
  4317                           
  4318     0C88                     _convert_float_to_string:	
  4319                           ;psect for function _convert_float_to_string
  4320                           
  4321     0C88                     l5143:	
  4322                           ;incstack = 0
  4323                           ; Regs used in _convert_float_to_string: [wreg-fsr0h+status,2+status,0+btemp+1+pclath+cs
      +                          tack]
  4324                           
  4325     0C88                     l5145:
  4326                           
  4327                           ;ECU/Chr_LCD/ecu_chr_lcd.c: 371:    if(((void*)0) == str)
  4328     0C88  1283               	bcf	3,5	;RP0=0, select bank0
  4329     0C89  1303               	bcf	3,6	;RP1=0, select bank0
  4330     0C8A  084A               	movf	convert_float_to_string@str,w
  4331     0C8B  1D03               	btfss	3,2
  4332     0C8C  2C8E               	goto	u7021
  4333     0C8D  2C8F               	goto	u7020
  4334     0C8E                     u7021:
  4335     0C8E  2C90               	goto	l5149
  4336     0C8F                     u7020:
  4337     0C8F                     l5147:
  4338                           
  4339                           ;ECU/Chr_LCD/ecu_chr_lcd.c: 374:    }
  4340     0C8F  2E30               	goto	l158
  4341     0C90                     l5149:
  4342                           
  4343                           ;ECU/Chr_LCD/ecu_chr_lcd.c: 376:    {;ECU/Chr_LCD/ecu_chr_lcd.c: 377:        uint8 index
      +                           = 0, integer_part, temp, ch, findone = 0;
  4344     0C90  01D8               	clrf	convert_float_to_string@index
  4345     0C91                     l5151:
  4346                           
  4347                           ;ECU/Chr_LCD/ecu_chr_lcd.c: 378:     float fractional_part;;ECU/Chr_LCD/ecu_chr_lcd.c: 3
      +                          79:     if(num < 0)
  4348     0C91  0849               	movf	convert_float_to_string@num+3,w
  4349     0C92  00F3               	movwf	___flge@ff1+3
  4350     0C93  0848               	movf	convert_float_to_string@num+2,w
  4351     0C94  00F2               	movwf	___flge@ff1+2
  4352     0C95  0847               	movf	convert_float_to_string@num+1,w
  4353     0C96  00F1               	movwf	___flge@ff1+1
  4354     0C97  0846               	movf	convert_float_to_string@num,w
  4355     0C98  00F0               	movwf	___flge@ff1
  4356     0C99  3000               	movlw	0
  4357     0C9A  00F7               	movwf	___flge@ff2+3
  4358     0C9B  3000               	movlw	0
  4359     0C9C  00F6               	movwf	___flge@ff2+2
  4360     0C9D  3000               	movlw	0
  4361     0C9E  00F5               	movwf	___flge@ff2+1
  4362     0C9F  3000               	movlw	0
  4363     0CA0  00F4               	movwf	___flge@ff2
  4364     0CA1  120A  158A  225F  120A  158A  	fcall	___flge
  4365     0CA6  1803               	btfsc	3,0
  4366     0CA7  2CA9               	goto	u7031
  4367     0CA8  2CAA               	goto	u7030
  4368     0CA9                     u7031:
  4369     0CA9  2CD4               	goto	l5159
  4370     0CAA                     u7030:
  4371     0CAA                     l5153:
  4372                           
  4373                           ;ECU/Chr_LCD/ecu_chr_lcd.c: 380:     {;ECU/Chr_LCD/ecu_chr_lcd.c: 381:        str[index+
      +                          +] = '-';
  4374     0CAA  1283               	bcf	3,5	;RP0=0, select bank0
  4375     0CAB  1303               	bcf	3,6	;RP1=0, select bank0
  4376     0CAC  084A               	movf	convert_float_to_string@str,w
  4377     0CAD  0084               	movwf	4
  4378     0CAE  302D               	movlw	45
  4379     0CAF  1383               	bcf	3,7	;select IRP bank0
  4380     0CB0  0080               	movwf	0
  4381     0CB1                     l5155:
  4382     0CB1  3001               	movlw	1
  4383     0CB2  00FF               	movwf	btemp+1
  4384     0CB3  087F               	movf	btemp+1,w
  4385     0CB4  07D8               	addwf	convert_float_to_string@index,f
  4386     0CB5                     l5157:
  4387                           
  4388                           ;ECU/Chr_LCD/ecu_chr_lcd.c: 382:        num = -1 * num;
  4389     0CB5  30BF               	movlw	191
  4390     0CB6  00AD               	movwf	___flmul@b+3
  4391     0CB7  3080               	movlw	128
  4392     0CB8  00AC               	movwf	___flmul@b+2
  4393     0CB9  3000               	movlw	0
  4394     0CBA  00AB               	movwf	___flmul@b+1
  4395     0CBB  3000               	movlw	0
  4396     0CBC  00AA               	movwf	___flmul@b
  4397     0CBD  0849               	movf	convert_float_to_string@num+3,w
  4398     0CBE  00B1               	movwf	___flmul@a+3
  4399     0CBF  0848               	movf	convert_float_to_string@num+2,w
  4400     0CC0  00B0               	movwf	___flmul@a+2
  4401     0CC1  0847               	movf	convert_float_to_string@num+1,w
  4402     0CC2  00AF               	movwf	___flmul@a+1
  4403     0CC3  0846               	movf	convert_float_to_string@num,w
  4404     0CC4  00AE               	movwf	___flmul@a
  4405     0CC5  120A  118A  248C  120A  158A  	fcall	___flmul
  4406     0CCA  1283               	bcf	3,5	;RP0=0, select bank0
  4407     0CCB  1303               	bcf	3,6	;RP1=0, select bank0
  4408     0CCC  082D               	movf	?___flmul+3,w
  4409     0CCD  00C9               	movwf	convert_float_to_string@num+3
  4410     0CCE  082C               	movf	?___flmul+2,w
  4411     0CCF  00C8               	movwf	convert_float_to_string@num+2
  4412     0CD0  082B               	movf	?___flmul+1,w
  4413     0CD1  00C7               	movwf	convert_float_to_string@num+1
  4414     0CD2  082A               	movf	?___flmul,w
  4415     0CD3  00C6               	movwf	convert_float_to_string@num
  4416     0CD4                     l5159:
  4417                           
  4418                           ;ECU/Chr_LCD/ecu_chr_lcd.c: 384:     if(num < 1)
  4419     0CD4  1283               	bcf	3,5	;RP0=0, select bank0
  4420     0CD5  1303               	bcf	3,6	;RP1=0, select bank0
  4421     0CD6  0849               	movf	convert_float_to_string@num+3,w
  4422     0CD7  00F3               	movwf	___flge@ff1+3
  4423     0CD8  0848               	movf	convert_float_to_string@num+2,w
  4424     0CD9  00F2               	movwf	___flge@ff1+2
  4425     0CDA  0847               	movf	convert_float_to_string@num+1,w
  4426     0CDB  00F1               	movwf	___flge@ff1+1
  4427     0CDC  0846               	movf	convert_float_to_string@num,w
  4428     0CDD  00F0               	movwf	___flge@ff1
  4429     0CDE  303F               	movlw	63
  4430     0CDF  00F7               	movwf	___flge@ff2+3
  4431     0CE0  3080               	movlw	128
  4432     0CE1  00F6               	movwf	___flge@ff2+2
  4433     0CE2  3000               	movlw	0
  4434     0CE3  00F5               	movwf	___flge@ff2+1
  4435     0CE4  3000               	movlw	0
  4436     0CE5  00F4               	movwf	___flge@ff2
  4437     0CE6  120A  158A  225F  120A  158A  	fcall	___flge
  4438     0CEB  1803               	btfsc	3,0
  4439     0CEC  2CEE               	goto	u7041
  4440     0CED  2CEF               	goto	u7040
  4441     0CEE                     u7041:
  4442     0CEE  2CFE               	goto	l5165
  4443     0CEF                     u7040:
  4444     0CEF                     l5161:
  4445                           
  4446                           ;ECU/Chr_LCD/ecu_chr_lcd.c: 385:     {;ECU/Chr_LCD/ecu_chr_lcd.c: 386:         str[index
      +                          ++] = '0';
  4447     0CEF  1283               	bcf	3,5	;RP0=0, select bank0
  4448     0CF0  1303               	bcf	3,6	;RP1=0, select bank0
  4449     0CF1  0858               	movf	convert_float_to_string@index,w
  4450     0CF2  074A               	addwf	convert_float_to_string@str,w
  4451     0CF3  00CB               	movwf	??_convert_float_to_string
  4452     0CF4  084B               	movf	??_convert_float_to_string,w
  4453     0CF5  0084               	movwf	4
  4454     0CF6  3030               	movlw	48
  4455     0CF7  1383               	bcf	3,7	;select IRP bank0
  4456     0CF8  0080               	movwf	0
  4457     0CF9                     l5163:
  4458     0CF9  3001               	movlw	1
  4459     0CFA  00FF               	movwf	btemp+1
  4460     0CFB  087F               	movf	btemp+1,w
  4461     0CFC  07D8               	addwf	convert_float_to_string@index,f
  4462                           
  4463                           ;ECU/Chr_LCD/ecu_chr_lcd.c: 387:     }
  4464     0CFD  2D5F               	goto	l5193
  4465     0CFE                     l5165:
  4466                           
  4467                           ;ECU/Chr_LCD/ecu_chr_lcd.c: 389:     {;ECU/Chr_LCD/ecu_chr_lcd.c: 390:         integer_p
      +                          art = (uint8) num;
  4468     0CFE  1283               	bcf	3,5	;RP0=0, select bank0
  4469     0CFF  1303               	bcf	3,6	;RP1=0, select bank0
  4470     0D00  0849               	movf	convert_float_to_string@num+3,w
  4471     0D01  00F3               	movwf	___fltol@f1+3
  4472     0D02  0848               	movf	convert_float_to_string@num+2,w
  4473     0D03  00F2               	movwf	___fltol@f1+2
  4474     0D04  0847               	movf	convert_float_to_string@num+1,w
  4475     0D05  00F1               	movwf	___fltol@f1+1
  4476     0D06  0846               	movf	convert_float_to_string@num,w
  4477     0D07  00F0               	movwf	___fltol@f1
  4478     0D08  120A  158A  2070  120A  158A  	fcall	___fltol
  4479     0D0D  0870               	movf	?___fltol,w
  4480     0D0E  1283               	bcf	3,5	;RP0=0, select bank0
  4481     0D0F  1303               	bcf	3,6	;RP1=0, select bank0
  4482     0D10  00D0               	movwf	convert_float_to_string@integer_part
  4483     0D11                     l5167:
  4484                           
  4485                           ;ECU/Chr_LCD/ecu_chr_lcd.c: 391:             temp = 100;
  4486     0D11  3064               	movlw	100
  4487     0D12  00D6               	movwf	convert_float_to_string@temp
  4488     0D13                     l5169:
  4489                           
  4490                           ;ECU/Chr_LCD/ecu_chr_lcd.c: 392:             findone = 0;
  4491     0D13  01CF               	clrf	convert_float_to_string@findone
  4492                           
  4493                           ;ECU/Chr_LCD/ecu_chr_lcd.c: 393:             while (temp)
  4494     0D14  2D5A               	goto	l5191
  4495     0D15                     l5171:
  4496                           
  4497                           ;ECU/Chr_LCD/ecu_chr_lcd.c: 394:             {;ECU/Chr_LCD/ecu_chr_lcd.c: 395:          
      +                                 ch = integer_part / temp;
  4498     0D15  0856               	movf	convert_float_to_string@temp,w
  4499     0D16  00F0               	movwf	___lbdiv@divisor
  4500     0D17  0850               	movf	convert_float_to_string@integer_part,w
  4501     0D18  160A  118A  256B  120A  158A  	fcall	___lbdiv
  4502     0D1D  1283               	bcf	3,5	;RP0=0, select bank0
  4503     0D1E  1303               	bcf	3,6	;RP1=0, select bank0
  4504     0D1F  00D7               	movwf	convert_float_to_string@ch
  4505     0D20                     l5173:
  4506                           
  4507                           ;ECU/Chr_LCD/ecu_chr_lcd.c: 396:                 integer_part = integer_part % temp;
  4508     0D20  0856               	movf	convert_float_to_string@temp,w
  4509     0D21  00F0               	movwf	___lbmod@divisor
  4510     0D22  0850               	movf	convert_float_to_string@integer_part,w
  4511     0D23  160A  118A  24DA  120A  158A  	fcall	___lbmod
  4512     0D28  1283               	bcf	3,5	;RP0=0, select bank0
  4513     0D29  1303               	bcf	3,6	;RP1=0, select bank0
  4514     0D2A  00D0               	movwf	convert_float_to_string@integer_part
  4515     0D2B                     l5175:
  4516                           
  4517                           ;ECU/Chr_LCD/ecu_chr_lcd.c: 397:                 if (ch > 0)
  4518     0D2B  0857               	movf	convert_float_to_string@ch,w
  4519     0D2C  1903               	btfsc	3,2
  4520     0D2D  2D2F               	goto	u7051
  4521     0D2E  2D30               	goto	u7050
  4522     0D2F                     u7051:
  4523     0D2F  2D40               	goto	l5183
  4524     0D30                     u7050:
  4525     0D30                     l5177:
  4526                           
  4527                           ;ECU/Chr_LCD/ecu_chr_lcd.c: 398:                 {;ECU/Chr_LCD/ecu_chr_lcd.c: 399:      
      +                                         findone = 1;
  4528     0D30  01CF               	clrf	convert_float_to_string@findone
  4529     0D31  0ACF               	incf	convert_float_to_string@findone,f
  4530     0D32                     l5179:
  4531                           
  4532                           ;ECU/Chr_LCD/ecu_chr_lcd.c: 400:                     str[index++] = ch + '0';
  4533     0D32  0858               	movf	convert_float_to_string@index,w
  4534     0D33  074A               	addwf	convert_float_to_string@str,w
  4535     0D34  00CB               	movwf	??_convert_float_to_string
  4536     0D35  084B               	movf	??_convert_float_to_string,w
  4537     0D36  0084               	movwf	4
  4538     0D37  0857               	movf	convert_float_to_string@ch,w
  4539     0D38  3E30               	addlw	48
  4540     0D39  1383               	bcf	3,7	;select IRP bank0
  4541     0D3A  0080               	movwf	0
  4542     0D3B                     l5181:
  4543     0D3B  3001               	movlw	1
  4544     0D3C  00FF               	movwf	btemp+1
  4545     0D3D  087F               	movf	btemp+1,w
  4546     0D3E  07D8               	addwf	convert_float_to_string@index,f
  4547                           
  4548                           ;ECU/Chr_LCD/ecu_chr_lcd.c: 401:                 }
  4549     0D3F  2D46               	goto	l5189
  4550     0D40                     l5183:
  4551     0D40  084F               	movf	convert_float_to_string@findone,w
  4552     0D41  1903               	btfsc	3,2
  4553     0D42  2D44               	goto	u7061
  4554     0D43  2D45               	goto	u7060
  4555     0D44                     u7061:
  4556     0D44  2D46               	goto	l5189
  4557     0D45                     u7060:
  4558     0D45  2D32               	goto	l5179
  4559     0D46                     l5189:
  4560                           
  4561                           ;ECU/Chr_LCD/ecu_chr_lcd.c: 407:                 temp /= 10;
  4562     0D46  300A               	movlw	10
  4563     0D47  00F0               	movwf	___awdiv@divisor
  4564     0D48  3000               	movlw	0
  4565     0D49  00F1               	movwf	___awdiv@divisor+1
  4566     0D4A  0856               	movf	convert_float_to_string@temp,w
  4567     0D4B  00CB               	movwf	??_convert_float_to_string
  4568     0D4C  01CC               	clrf	??_convert_float_to_string+1
  4569     0D4D  084B               	movf	??_convert_float_to_string,w
  4570     0D4E  00F2               	movwf	___awdiv@dividend
  4571     0D4F  084C               	movf	??_convert_float_to_string+1,w
  4572     0D50  00F3               	movwf	___awdiv@dividend+1
  4573     0D51  120A  158A  2009  120A  158A  	fcall	___awdiv
  4574     0D56  0870               	movf	?___awdiv,w
  4575     0D57  1283               	bcf	3,5	;RP0=0, select bank0
  4576     0D58  1303               	bcf	3,6	;RP1=0, select bank0
  4577     0D59  00D6               	movwf	convert_float_to_string@temp
  4578     0D5A                     l5191:
  4579                           
  4580                           ;ECU/Chr_LCD/ecu_chr_lcd.c: 393:             while (temp)
  4581     0D5A  0856               	movf	convert_float_to_string@temp,w
  4582     0D5B  1D03               	btfss	3,2
  4583     0D5C  2D5E               	goto	u7071
  4584     0D5D  2D5F               	goto	u7070
  4585     0D5E                     u7071:
  4586     0D5E  2D15               	goto	l5171
  4587     0D5F                     u7070:
  4588     0D5F                     l5193:
  4589                           
  4590                           ;ECU/Chr_LCD/ecu_chr_lcd.c: 411:     str[index++] = '.';
  4591     0D5F  0858               	movf	convert_float_to_string@index,w
  4592     0D60  074A               	addwf	convert_float_to_string@str,w
  4593     0D61  00CB               	movwf	??_convert_float_to_string
  4594     0D62  084B               	movf	??_convert_float_to_string,w
  4595     0D63  0084               	movwf	4
  4596     0D64  302E               	movlw	46
  4597     0D65  1383               	bcf	3,7	;select IRP bank0
  4598     0D66  0080               	movwf	0
  4599     0D67                     l5195:
  4600     0D67  3001               	movlw	1
  4601     0D68  00FF               	movwf	btemp+1
  4602     0D69  087F               	movf	btemp+1,w
  4603     0D6A  07D8               	addwf	convert_float_to_string@index,f
  4604     0D6B                     l5197:
  4605                           
  4606                           ;ECU/Chr_LCD/ecu_chr_lcd.c: 412:     fractional_part = num - (uint8)num;
  4607     0D6B  0849               	movf	convert_float_to_string@num+3,w
  4608     0D6C  00F3               	movwf	___fltol@f1+3
  4609     0D6D  0848               	movf	convert_float_to_string@num+2,w
  4610     0D6E  00F2               	movwf	___fltol@f1+2
  4611     0D6F  0847               	movf	convert_float_to_string@num+1,w
  4612     0D70  00F1               	movwf	___fltol@f1+1
  4613     0D71  0846               	movf	convert_float_to_string@num,w
  4614     0D72  00F0               	movwf	___fltol@f1
  4615     0D73  120A  158A  2070  120A  158A  	fcall	___fltol
  4616     0D78  0870               	movf	?___fltol,w
  4617     0D79  1283               	bcf	3,5	;RP0=0, select bank0
  4618     0D7A  1303               	bcf	3,6	;RP1=0, select bank0
  4619     0D7B  00CB               	movwf	??_convert_float_to_string
  4620     0D7C  01CC               	clrf	??_convert_float_to_string+1
  4621     0D7D  01CD               	clrf	??_convert_float_to_string+2
  4622     0D7E  01CE               	clrf	??_convert_float_to_string+3
  4623     0D7F  084E               	movf	??_convert_float_to_string+3,w
  4624     0D80  00FD               	movwf	___xxtofl@val+3
  4625     0D81  084D               	movf	??_convert_float_to_string+2,w
  4626     0D82  00FC               	movwf	___xxtofl@val+2
  4627     0D83  084C               	movf	??_convert_float_to_string+1,w
  4628     0D84  00FB               	movwf	___xxtofl@val+1
  4629     0D85  084B               	movf	??_convert_float_to_string,w
  4630     0D86  00FA               	movwf	___xxtofl@val
  4631     0D87  3001               	movlw	1
  4632     0D88  120A  158A  2301  120A  158A  	fcall	___xxtofl
  4633     0D8D  087D               	movf	?___xxtofl+3,w
  4634     0D8E  1283               	bcf	3,5	;RP0=0, select bank0
  4635     0D8F  1303               	bcf	3,6	;RP1=0, select bank0
  4636     0D90  00C1               	movwf	___flsub@a+3
  4637     0D91  087C               	movf	?___xxtofl+2,w
  4638     0D92  00C0               	movwf	___flsub@a+2
  4639     0D93  087B               	movf	?___xxtofl+1,w
  4640     0D94  00BF               	movwf	___flsub@a+1
  4641     0D95  087A               	movf	?___xxtofl,w
  4642     0D96  00BE               	movwf	___flsub@a
  4643     0D97  0849               	movf	convert_float_to_string@num+3,w
  4644     0D98  00C5               	movwf	___flsub@b+3
  4645     0D99  0848               	movf	convert_float_to_string@num+2,w
  4646     0D9A  00C4               	movwf	___flsub@b+2
  4647     0D9B  0847               	movf	convert_float_to_string@num+1,w
  4648     0D9C  00C3               	movwf	___flsub@b+1
  4649     0D9D  0846               	movf	convert_float_to_string@num,w
  4650     0D9E  00C2               	movwf	___flsub@b
  4651     0D9F  160A  118A  2520  120A  158A  	fcall	___flsub
  4652     0DA4  1283               	bcf	3,5	;RP0=0, select bank0
  4653     0DA5  1303               	bcf	3,6	;RP1=0, select bank0
  4654     0DA6  0841               	movf	?___flsub+3,w
  4655     0DA7  00D5               	movwf	convert_float_to_string@fractional_part+3
  4656     0DA8  0840               	movf	?___flsub+2,w
  4657     0DA9  00D4               	movwf	convert_float_to_string@fractional_part+2
  4658     0DAA  083F               	movf	?___flsub+1,w
  4659     0DAB  00D3               	movwf	convert_float_to_string@fractional_part+1
  4660     0DAC  083E               	movf	?___flsub,w
  4661     0DAD  00D2               	movwf	convert_float_to_string@fractional_part
  4662     0DAE                     l5199:
  4663                           
  4664                           ;ECU/Chr_LCD/ecu_chr_lcd.c: 413:     for(uint8 i = 0; i<5; i++)
  4665     0DAE  01D1               	clrf	convert_float_to_string@i
  4666     0DAF                     l5205:
  4667                           
  4668                           ;ECU/Chr_LCD/ecu_chr_lcd.c: 414:     {;ECU/Chr_LCD/ecu_chr_lcd.c: 415:         fractiona
      +                          l_part *= 10;
  4669     0DAF  3041               	movlw	65
  4670     0DB0  00AD               	movwf	___flmul@b+3
  4671     0DB1  3020               	movlw	32
  4672     0DB2  00AC               	movwf	___flmul@b+2
  4673     0DB3  3000               	movlw	0
  4674     0DB4  00AB               	movwf	___flmul@b+1
  4675     0DB5  3000               	movlw	0
  4676     0DB6  00AA               	movwf	___flmul@b
  4677     0DB7  0855               	movf	convert_float_to_string@fractional_part+3,w
  4678     0DB8  00B1               	movwf	___flmul@a+3
  4679     0DB9  0854               	movf	convert_float_to_string@fractional_part+2,w
  4680     0DBA  00B0               	movwf	___flmul@a+2
  4681     0DBB  0853               	movf	convert_float_to_string@fractional_part+1,w
  4682     0DBC  00AF               	movwf	___flmul@a+1
  4683     0DBD  0852               	movf	convert_float_to_string@fractional_part,w
  4684     0DBE  00AE               	movwf	___flmul@a
  4685     0DBF  120A  118A  248C  120A  158A  	fcall	___flmul
  4686     0DC4  1283               	bcf	3,5	;RP0=0, select bank0
  4687     0DC5  1303               	bcf	3,6	;RP1=0, select bank0
  4688     0DC6  082D               	movf	?___flmul+3,w
  4689     0DC7  00D5               	movwf	convert_float_to_string@fractional_part+3
  4690     0DC8  082C               	movf	?___flmul+2,w
  4691     0DC9  00D4               	movwf	convert_float_to_string@fractional_part+2
  4692     0DCA  082B               	movf	?___flmul+1,w
  4693     0DCB  00D3               	movwf	convert_float_to_string@fractional_part+1
  4694     0DCC  082A               	movf	?___flmul,w
  4695     0DCD  00D2               	movwf	convert_float_to_string@fractional_part
  4696                           
  4697                           ;ECU/Chr_LCD/ecu_chr_lcd.c: 416:         ch = (uint8)fractional_part;
  4698     0DCE  0855               	movf	convert_float_to_string@fractional_part+3,w
  4699     0DCF  00F3               	movwf	___fltol@f1+3
  4700     0DD0  0854               	movf	convert_float_to_string@fractional_part+2,w
  4701     0DD1  00F2               	movwf	___fltol@f1+2
  4702     0DD2  0853               	movf	convert_float_to_string@fractional_part+1,w
  4703     0DD3  00F1               	movwf	___fltol@f1+1
  4704     0DD4  0852               	movf	convert_float_to_string@fractional_part,w
  4705     0DD5  00F0               	movwf	___fltol@f1
  4706     0DD6  120A  158A  2070  120A  158A  	fcall	___fltol
  4707     0DDB  0870               	movf	?___fltol,w
  4708     0DDC  1283               	bcf	3,5	;RP0=0, select bank0
  4709     0DDD  1303               	bcf	3,6	;RP1=0, select bank0
  4710     0DDE  00D7               	movwf	convert_float_to_string@ch
  4711                           
  4712                           ;ECU/Chr_LCD/ecu_chr_lcd.c: 417:         fractional_part = fractional_part - ch;
  4713     0DDF  0857               	movf	convert_float_to_string@ch,w
  4714     0DE0  00CB               	movwf	??_convert_float_to_string
  4715     0DE1  01CC               	clrf	??_convert_float_to_string+1
  4716     0DE2  01CD               	clrf	??_convert_float_to_string+2
  4717     0DE3  01CE               	clrf	??_convert_float_to_string+3
  4718     0DE4  084E               	movf	??_convert_float_to_string+3,w
  4719     0DE5  00FD               	movwf	___xxtofl@val+3
  4720     0DE6  084D               	movf	??_convert_float_to_string+2,w
  4721     0DE7  00FC               	movwf	___xxtofl@val+2
  4722     0DE8  084C               	movf	??_convert_float_to_string+1,w
  4723     0DE9  00FB               	movwf	___xxtofl@val+1
  4724     0DEA  084B               	movf	??_convert_float_to_string,w
  4725     0DEB  00FA               	movwf	___xxtofl@val
  4726     0DEC  3001               	movlw	1
  4727     0DED  120A  158A  2301  120A  158A  	fcall	___xxtofl
  4728     0DF2  087D               	movf	?___xxtofl+3,w
  4729     0DF3  1283               	bcf	3,5	;RP0=0, select bank0
  4730     0DF4  1303               	bcf	3,6	;RP1=0, select bank0
  4731     0DF5  00C1               	movwf	___flsub@a+3
  4732     0DF6  087C               	movf	?___xxtofl+2,w
  4733     0DF7  00C0               	movwf	___flsub@a+2
  4734     0DF8  087B               	movf	?___xxtofl+1,w
  4735     0DF9  00BF               	movwf	___flsub@a+1
  4736     0DFA  087A               	movf	?___xxtofl,w
  4737     0DFB  00BE               	movwf	___flsub@a
  4738     0DFC  0855               	movf	convert_float_to_string@fractional_part+3,w
  4739     0DFD  00C5               	movwf	___flsub@b+3
  4740     0DFE  0854               	movf	convert_float_to_string@fractional_part+2,w
  4741     0DFF  00C4               	movwf	___flsub@b+2
  4742     0E00  0853               	movf	convert_float_to_string@fractional_part+1,w
  4743     0E01  00C3               	movwf	___flsub@b+1
  4744     0E02  0852               	movf	convert_float_to_string@fractional_part,w
  4745     0E03  00C2               	movwf	___flsub@b
  4746     0E04  160A  118A  2520  120A  158A  	fcall	___flsub
  4747     0E09  1283               	bcf	3,5	;RP0=0, select bank0
  4748     0E0A  1303               	bcf	3,6	;RP1=0, select bank0
  4749     0E0B  0841               	movf	?___flsub+3,w
  4750     0E0C  00D5               	movwf	convert_float_to_string@fractional_part+3
  4751     0E0D  0840               	movf	?___flsub+2,w
  4752     0E0E  00D4               	movwf	convert_float_to_string@fractional_part+2
  4753     0E0F  083F               	movf	?___flsub+1,w
  4754     0E10  00D3               	movwf	convert_float_to_string@fractional_part+1
  4755     0E11  083E               	movf	?___flsub,w
  4756     0E12  00D2               	movwf	convert_float_to_string@fractional_part
  4757     0E13                     l5207:
  4758                           
  4759                           ;ECU/Chr_LCD/ecu_chr_lcd.c: 418:         str[index++] = ch + '0';
  4760     0E13  0858               	movf	convert_float_to_string@index,w
  4761     0E14  074A               	addwf	convert_float_to_string@str,w
  4762     0E15  00CB               	movwf	??_convert_float_to_string
  4763     0E16  084B               	movf	??_convert_float_to_string,w
  4764     0E17  0084               	movwf	4
  4765     0E18  0857               	movf	convert_float_to_string@ch,w
  4766     0E19  3E30               	addlw	48
  4767     0E1A  1383               	bcf	3,7	;select IRP bank0
  4768     0E1B  0080               	movwf	0
  4769     0E1C                     l5209:
  4770     0E1C  3001               	movlw	1
  4771     0E1D  00FF               	movwf	btemp+1
  4772     0E1E  087F               	movf	btemp+1,w
  4773     0E1F  07D8               	addwf	convert_float_to_string@index,f
  4774     0E20                     l5211:
  4775                           
  4776                           ;ECU/Chr_LCD/ecu_chr_lcd.c: 419:     }
  4777     0E20  3001               	movlw	1
  4778     0E21  00FF               	movwf	btemp+1
  4779     0E22  087F               	movf	btemp+1,w
  4780     0E23  07D1               	addwf	convert_float_to_string@i,f
  4781     0E24                     l5213:
  4782     0E24  3005               	movlw	5
  4783     0E25  0251               	subwf	convert_float_to_string@i,w
  4784     0E26  1C03               	skipc
  4785     0E27  2E29               	goto	u7081
  4786     0E28  2E2A               	goto	u7080
  4787     0E29                     u7081:
  4788     0E29  2DAF               	goto	l5205
  4789     0E2A                     u7080:
  4790     0E2A                     l5215:
  4791                           
  4792                           ;ECU/Chr_LCD/ecu_chr_lcd.c: 420:     str[index] = '\0';
  4793     0E2A  0858               	movf	convert_float_to_string@index,w
  4794     0E2B  074A               	addwf	convert_float_to_string@str,w
  4795     0E2C  00CB               	movwf	??_convert_float_to_string
  4796     0E2D  084B               	movf	??_convert_float_to_string,w
  4797     0E2E  0084               	movwf	4
  4798     0E2F  0180               	clrf	0
  4799     0E30                     l158:
  4800     0E30  0008               	return
  4801     0E31                     __end_of_convert_float_to_string:
  4802                           
  4803                           	psect	text17
  4804     0B01                     __ptext17:	
  4805 ;; *************** function ___xxtofl *****************
  4806 ;; Defined at:
  4807 ;;		line 10 in file "C:\Program Files\Microchip\xc8\v2.45\pic\sources\c99\common\xxtofl.c"
  4808 ;; Parameters:    Size  Location     Type
  4809 ;;  sign            1    wreg     unsigned char 
  4810 ;;  val             4   10[COMMON] long 
  4811 ;; Auto vars:     Size  Location     Type
  4812 ;;  sign            1    4[BANK0 ] unsigned char 
  4813 ;;  arg             4    6[BANK0 ] unsigned long 
  4814 ;;  exp             1    5[BANK0 ] unsigned char 
  4815 ;; Return value:  Size  Location     Type
  4816 ;;                  4   10[COMMON] unsigned char 
  4817 ;; Registers used:
  4818 ;;		wreg, status,2, status,0, btemp+1
  4819 ;; Tracked objects:
  4820 ;;		On entry : 0/0
  4821 ;;		On exit  : 0/0
  4822 ;;		Unchanged: 0/0
  4823 ;; Data sizes:     COMMON   BANK0   BANK1   BANK3   BANK2
  4824 ;;      Params:         4       0       0       0       0
  4825 ;;      Locals:         0       6       0       0       0
  4826 ;;      Temps:          0       4       0       0       0
  4827 ;;      Totals:         4      10       0       0       0
  4828 ;;Total ram usage:       14 bytes
  4829 ;; Hardware stack levels used: 1
  4830 ;; This function calls:
  4831 ;;		Nothing
  4832 ;; This function is called by:
  4833 ;;		_convert_float_to_string
  4834 ;;		_main
  4835 ;; This function uses a non-reentrant model
  4836 ;;
  4837                           
  4838     0B01                     ___xxtofl:	
  4839                           ;psect for function ___xxtofl
  4840                           
  4841                           
  4842                           ;incstack = 0
  4843                           ; Regs used in ___xxtofl: [wreg+status,2+status,0+btemp+1]
  4844                           ;___xxtofl@sign stored from wreg
  4845     0B01  1283               	bcf	3,5	;RP0=0, select bank0
  4846     0B02  1303               	bcf	3,6	;RP1=0, select bank0
  4847     0B03  00A4               	movwf	___xxtofl@sign
  4848     0B04                     l4969:
  4849     0B04  0824               	movf	___xxtofl@sign,w
  4850     0B05  1903               	btfsc	3,2
  4851     0B06  2B08               	goto	u6741
  4852     0B07  2B09               	goto	u6740
  4853     0B08                     u6741:
  4854     0B08  2B1D               	goto	l4975
  4855     0B09                     u6740:
  4856     0B09                     l4971:
  4857     0B09  1FFD               	btfss	___xxtofl@val+3,7
  4858     0B0A  2B0C               	goto	u6751
  4859     0B0B  2B0D               	goto	u6750
  4860     0B0C                     u6751:
  4861     0B0C  2B1D               	goto	l4975
  4862     0B0D                     u6750:
  4863     0B0D                     l4973:
  4864     0B0D  097A               	comf	___xxtofl@val,w
  4865     0B0E  00A6               	movwf	___xxtofl@arg
  4866     0B0F  097B               	comf	___xxtofl@val+1,w
  4867     0B10  00A7               	movwf	___xxtofl@arg+1
  4868     0B11  097C               	comf	___xxtofl@val+2,w
  4869     0B12  00A8               	movwf	___xxtofl@arg+2
  4870     0B13  097D               	comf	___xxtofl@val+3,w
  4871     0B14  00A9               	movwf	___xxtofl@arg+3
  4872     0B15  0AA6               	incf	___xxtofl@arg,f
  4873     0B16  1903               	skipnz
  4874     0B17  0AA7               	incf	___xxtofl@arg+1,f
  4875     0B18  1903               	skipnz
  4876     0B19  0AA8               	incf	___xxtofl@arg+2,f
  4877     0B1A  1903               	skipnz
  4878     0B1B  0AA9               	incf	___xxtofl@arg+3,f
  4879     0B1C  2B25               	goto	l950
  4880     0B1D                     l4975:
  4881     0B1D  087D               	movf	___xxtofl@val+3,w
  4882     0B1E  00A9               	movwf	___xxtofl@arg+3
  4883     0B1F  087C               	movf	___xxtofl@val+2,w
  4884     0B20  00A8               	movwf	___xxtofl@arg+2
  4885     0B21  087B               	movf	___xxtofl@val+1,w
  4886     0B22  00A7               	movwf	___xxtofl@arg+1
  4887     0B23  087A               	movf	___xxtofl@val,w
  4888     0B24  00A6               	movwf	___xxtofl@arg
  4889     0B25                     l950:
  4890     0B25  087D               	movf	___xxtofl@val+3,w
  4891     0B26  047C               	iorwf	___xxtofl@val+2,w
  4892     0B27  047B               	iorwf	___xxtofl@val+1,w
  4893     0B28  047A               	iorwf	___xxtofl@val,w
  4894     0B29  1D03               	skipz
  4895     0B2A  2B2C               	goto	u6761
  4896     0B2B  2B2D               	goto	u6760
  4897     0B2C                     u6761:
  4898     0B2C  2B36               	goto	l4981
  4899     0B2D                     u6760:
  4900     0B2D                     l4977:
  4901     0B2D  3000               	movlw	0
  4902     0B2E  00FD               	movwf	?___xxtofl+3
  4903     0B2F  3000               	movlw	0
  4904     0B30  00FC               	movwf	?___xxtofl+2
  4905     0B31  3000               	movlw	0
  4906     0B32  00FB               	movwf	?___xxtofl+1
  4907     0B33  3000               	movlw	0
  4908     0B34  00FA               	movwf	?___xxtofl
  4909     0B35  2BBA               	goto	l952
  4910     0B36                     l4981:
  4911     0B36  3096               	movlw	150
  4912     0B37  00A5               	movwf	___xxtofl@exp
  4913     0B38  2B46               	goto	l4987
  4914     0B39                     l4983:
  4915     0B39  3001               	movlw	1
  4916     0B3A  00FF               	movwf	btemp+1
  4917     0B3B  087F               	movf	btemp+1,w
  4918     0B3C  07A5               	addwf	___xxtofl@exp,f
  4919     0B3D                     l4985:
  4920     0B3D  3001               	movlw	1
  4921     0B3E                     u6775:
  4922     0B3E  1003               	clrc
  4923     0B3F  0CA9               	rrf	___xxtofl@arg+3,f
  4924     0B40  0CA8               	rrf	___xxtofl@arg+2,f
  4925     0B41  0CA7               	rrf	___xxtofl@arg+1,f
  4926     0B42  0CA6               	rrf	___xxtofl@arg,f
  4927     0B43  3EFF               	addlw	-1
  4928     0B44  1D03               	skipz
  4929     0B45  2B3E               	goto	u6775
  4930     0B46                     l4987:
  4931     0B46  30FE               	movlw	254
  4932     0B47  0529               	andwf	___xxtofl@arg+3,w
  4933     0B48  1D03               	btfss	3,2
  4934     0B49  2B4B               	goto	u6781
  4935     0B4A  2B4C               	goto	u6780
  4936     0B4B                     u6781:
  4937     0B4B  2B39               	goto	l4983
  4938     0B4C                     u6780:
  4939     0B4C  2B68               	goto	l4995
  4940     0B4D                     l4989:
  4941     0B4D  3001               	movlw	1
  4942     0B4E  00FF               	movwf	btemp+1
  4943     0B4F  087F               	movf	btemp+1,w
  4944     0B50  07A5               	addwf	___xxtofl@exp,f
  4945     0B51                     l4991:
  4946     0B51  3001               	movlw	1
  4947     0B52  07A6               	addwf	___xxtofl@arg,f
  4948     0B53  3000               	movlw	0
  4949     0B54  1803               	skipnc
  4950     0B55  3001               	movlw	1
  4951     0B56  07A7               	addwf	___xxtofl@arg+1,f
  4952     0B57  3000               	movlw	0
  4953     0B58  1803               	skipnc
  4954     0B59  3001               	movlw	1
  4955     0B5A  07A8               	addwf	___xxtofl@arg+2,f
  4956     0B5B  3000               	movlw	0
  4957     0B5C  1803               	skipnc
  4958     0B5D  3001               	movlw	1
  4959     0B5E  07A9               	addwf	___xxtofl@arg+3,f
  4960     0B5F                     l4993:
  4961     0B5F  3001               	movlw	1
  4962     0B60                     u6795:
  4963     0B60  1003               	clrc
  4964     0B61  0CA9               	rrf	___xxtofl@arg+3,f
  4965     0B62  0CA8               	rrf	___xxtofl@arg+2,f
  4966     0B63  0CA7               	rrf	___xxtofl@arg+1,f
  4967     0B64  0CA6               	rrf	___xxtofl@arg,f
  4968     0B65  3EFF               	addlw	-1
  4969     0B66  1D03               	skipz
  4970     0B67  2B60               	goto	u6795
  4971     0B68                     l4995:
  4972     0B68  30FF               	movlw	255
  4973     0B69  0529               	andwf	___xxtofl@arg+3,w
  4974     0B6A  1D03               	btfss	3,2
  4975     0B6B  2B6D               	goto	u6801
  4976     0B6C  2B6E               	goto	u6800
  4977     0B6D                     u6801:
  4978     0B6D  2B4D               	goto	l4989
  4979     0B6E                     u6800:
  4980     0B6E  2B7A               	goto	l4999
  4981     0B6F                     l4997:
  4982     0B6F  3001               	movlw	1
  4983     0B70  02A5               	subwf	___xxtofl@exp,f
  4984     0B71  3001               	movlw	1
  4985     0B72  00A0               	movwf	??___xxtofl
  4986     0B73                     u6815:
  4987     0B73  1003               	clrc
  4988     0B74  0DA6               	rlf	___xxtofl@arg,f
  4989     0B75  0DA7               	rlf	___xxtofl@arg+1,f
  4990     0B76  0DA8               	rlf	___xxtofl@arg+2,f
  4991     0B77  0DA9               	rlf	___xxtofl@arg+3,f
  4992     0B78  0BA0               	decfsz	??___xxtofl,f
  4993     0B79  2B73               	goto	u6815
  4994     0B7A                     l4999:
  4995     0B7A  1BA8               	btfsc	___xxtofl@arg+2,7
  4996     0B7B  2B7D               	goto	u6821
  4997     0B7C  2B7E               	goto	u6820
  4998     0B7D                     u6821:
  4999     0B7D  2B84               	goto	l963
  5000     0B7E                     u6820:
  5001     0B7E                     l5001:
  5002     0B7E  3002               	movlw	2
  5003     0B7F  0225               	subwf	___xxtofl@exp,w
  5004     0B80  1803               	skipnc
  5005     0B81  2B83               	goto	u6831
  5006     0B82  2B84               	goto	u6830
  5007     0B83                     u6831:
  5008     0B83  2B6F               	goto	l4997
  5009     0B84                     u6830:
  5010     0B84                     l963:
  5011     0B84  1825               	btfsc	___xxtofl@exp,0
  5012     0B85  2B87               	goto	u6841
  5013     0B86  2B88               	goto	u6840
  5014     0B87                     u6841:
  5015     0B87  2B90               	goto	l964
  5016     0B88                     u6840:
  5017     0B88                     l5003:
  5018     0B88  30FF               	movlw	255
  5019     0B89  05A6               	andwf	___xxtofl@arg,f
  5020     0B8A  30FF               	movlw	255
  5021     0B8B  05A7               	andwf	___xxtofl@arg+1,f
  5022     0B8C  307F               	movlw	127
  5023     0B8D  05A8               	andwf	___xxtofl@arg+2,f
  5024     0B8E  30FF               	movlw	255
  5025     0B8F  05A9               	andwf	___xxtofl@arg+3,f
  5026     0B90                     l964:
  5027     0B90  1003               	clrc
  5028     0B91  0CA5               	rrf	___xxtofl@exp,f
  5029     0B92                     l5005:
  5030     0B92  0825               	movf	___xxtofl@exp,w
  5031     0B93  00A0               	movwf	??___xxtofl
  5032     0B94  01A1               	clrf	??___xxtofl+1
  5033     0B95  01A2               	clrf	??___xxtofl+2
  5034     0B96  01A3               	clrf	??___xxtofl+3
  5035     0B97  3018               	movlw	24
  5036     0B98                     u6855:
  5037     0B98  1003               	clrc
  5038     0B99  0DA0               	rlf	??___xxtofl,f
  5039     0B9A  0DA1               	rlf	??___xxtofl+1,f
  5040     0B9B  0DA2               	rlf	??___xxtofl+2,f
  5041     0B9C  0DA3               	rlf	??___xxtofl+3,f
  5042     0B9D                     u6850:
  5043     0B9D  3EFF               	addlw	-1
  5044     0B9E  1D03               	skipz
  5045     0B9F  2B98               	goto	u6855
  5046     0BA0  0820               	movf	??___xxtofl,w
  5047     0BA1  04A6               	iorwf	___xxtofl@arg,f
  5048     0BA2  0821               	movf	??___xxtofl+1,w
  5049     0BA3  04A7               	iorwf	___xxtofl@arg+1,f
  5050     0BA4  0822               	movf	??___xxtofl+2,w
  5051     0BA5  04A8               	iorwf	___xxtofl@arg+2,f
  5052     0BA6  0823               	movf	??___xxtofl+3,w
  5053     0BA7  04A9               	iorwf	___xxtofl@arg+3,f
  5054     0BA8                     l5007:
  5055     0BA8  0824               	movf	___xxtofl@sign,w
  5056     0BA9  1903               	btfsc	3,2
  5057     0BAA  2BAC               	goto	u6861
  5058     0BAB  2BAD               	goto	u6860
  5059     0BAC                     u6861:
  5060     0BAC  2BB2               	goto	l5013
  5061     0BAD                     u6860:
  5062     0BAD                     l5009:
  5063     0BAD  1FFD               	btfss	___xxtofl@val+3,7
  5064     0BAE  2BB0               	goto	u6871
  5065     0BAF  2BB1               	goto	u6870
  5066     0BB0                     u6871:
  5067     0BB0  2BB2               	goto	l5013
  5068     0BB1                     u6870:
  5069     0BB1                     l5011:
  5070     0BB1  17A9               	bsf	___xxtofl@arg+3,7
  5071     0BB2                     l5013:
  5072     0BB2  0829               	movf	___xxtofl@arg+3,w
  5073     0BB3  00FD               	movwf	?___xxtofl+3
  5074     0BB4  0828               	movf	___xxtofl@arg+2,w
  5075     0BB5  00FC               	movwf	?___xxtofl+2
  5076     0BB6  0827               	movf	___xxtofl@arg+1,w
  5077     0BB7  00FB               	movwf	?___xxtofl+1
  5078     0BB8  0826               	movf	___xxtofl@arg,w
  5079     0BB9  00FA               	movwf	?___xxtofl
  5080     0BBA                     l952:
  5081     0BBA  0008               	return
  5082     0BBB                     __end_of___xxtofl:
  5083                           
  5084                           	psect	text18
  5085     14DA                     __ptext18:	
  5086 ;; *************** function ___lbmod *****************
  5087 ;; Defined at:
  5088 ;;		line 4 in file "C:\Program Files\Microchip\xc8\v2.45\pic\sources\c99\common\lbmod.c"
  5089 ;; Parameters:    Size  Location     Type
  5090 ;;  dividend        1    wreg     unsigned char 
  5091 ;;  divisor         1    0[COMMON] unsigned char 
  5092 ;; Auto vars:     Size  Location     Type
  5093 ;;  dividend        1    3[COMMON] unsigned char 
  5094 ;;  rem             1    5[COMMON] unsigned char 
  5095 ;;  counter         1    4[COMMON] unsigned char 
  5096 ;; Return value:  Size  Location     Type
  5097 ;;                  1    wreg      unsigned char 
  5098 ;; Registers used:
  5099 ;;		wreg, status,2, status,0
  5100 ;; Tracked objects:
  5101 ;;		On entry : 0/0
  5102 ;;		On exit  : 0/0
  5103 ;;		Unchanged: 0/0
  5104 ;; Data sizes:     COMMON   BANK0   BANK1   BANK3   BANK2
  5105 ;;      Params:         1       0       0       0       0
  5106 ;;      Locals:         3       0       0       0       0
  5107 ;;      Temps:          2       0       0       0       0
  5108 ;;      Totals:         6       0       0       0       0
  5109 ;;Total ram usage:        6 bytes
  5110 ;; Hardware stack levels used: 1
  5111 ;; This function calls:
  5112 ;;		Nothing
  5113 ;; This function is called by:
  5114 ;;		_convert_float_to_string
  5115 ;; This function uses a non-reentrant model
  5116 ;;
  5117                           
  5118     14DA                     ___lbmod:	
  5119                           ;psect for function ___lbmod
  5120                           
  5121                           
  5122                           ;incstack = 0
  5123                           ; Regs used in ___lbmod: [wreg+status,2+status,0]
  5124                           ;___lbmod@dividend stored from wreg
  5125     14DA  00F3               	movwf	___lbmod@dividend
  5126     14DB                     l4805:
  5127     14DB  3008               	movlw	8
  5128     14DC  00F4               	movwf	___lbmod@counter
  5129     14DD                     l4807:
  5130     14DD  01F5               	clrf	___lbmod@rem
  5131     14DE                     l4809:
  5132     14DE  0873               	movf	___lbmod@dividend,w
  5133     14DF  00F1               	movwf	??___lbmod
  5134     14E0  3007               	movlw	7
  5135     14E1                     u6345:
  5136     14E1  1003               	clrc
  5137     14E2  0CF1               	rrf	??___lbmod,f
  5138     14E3  3EFF               	addlw	-1
  5139     14E4  1D03               	skipz
  5140     14E5  2CE1               	goto	u6345
  5141     14E6  0875               	movf	___lbmod@rem,w
  5142     14E7  00F2               	movwf	??___lbmod+1
  5143     14E8  0772               	addwf	??___lbmod+1,w
  5144     14E9  0471               	iorwf	??___lbmod,w
  5145     14EA  00F5               	movwf	___lbmod@rem
  5146     14EB                     l4811:
  5147     14EB  1003               	clrc
  5148     14EC  0DF3               	rlf	___lbmod@dividend,f
  5149     14ED                     l4813:
  5150     14ED  0870               	movf	___lbmod@divisor,w
  5151     14EE  0275               	subwf	___lbmod@rem,w
  5152     14EF  1C03               	skipc
  5153     14F0  2CF2               	goto	u6351
  5154     14F1  2CF3               	goto	u6350
  5155     14F2                     u6351:
  5156     14F2  2CF5               	goto	l727
  5157     14F3                     u6350:
  5158     14F3                     l4815:
  5159     14F3  0870               	movf	___lbmod@divisor,w
  5160     14F4  02F5               	subwf	___lbmod@rem,f
  5161     14F5                     l727:
  5162     14F5  3001               	movlw	1
  5163     14F6  02F4               	subwf	___lbmod@counter,f
  5164     14F7  1D03               	btfss	3,2
  5165     14F8  2CFA               	goto	u6361
  5166     14F9  2CFB               	goto	u6360
  5167     14FA                     u6361:
  5168     14FA  2CDE               	goto	l4809
  5169     14FB                     u6360:
  5170     14FB                     l4817:
  5171     14FB  0875               	movf	___lbmod@rem,w
  5172     14FC                     l729:
  5173     14FC  0008               	return
  5174     14FD                     __end_of___lbmod:
  5175                           
  5176                           	psect	text19
  5177     156B                     __ptext19:	
  5178 ;; *************** function ___lbdiv *****************
  5179 ;; Defined at:
  5180 ;;		line 4 in file "C:\Program Files\Microchip\xc8\v2.45\pic\sources\c99\common\lbdiv.c"
  5181 ;; Parameters:    Size  Location     Type
  5182 ;;  dividend        1    wreg     unsigned char 
  5183 ;;  divisor         1    0[COMMON] unsigned char 
  5184 ;; Auto vars:     Size  Location     Type
  5185 ;;  dividend        1    1[COMMON] unsigned char 
  5186 ;;  quotient        1    3[COMMON] unsigned char 
  5187 ;;  counter         1    2[COMMON] unsigned char 
  5188 ;; Return value:  Size  Location     Type
  5189 ;;                  1    wreg      unsigned char 
  5190 ;; Registers used:
  5191 ;;		wreg, status,2, status,0, btemp+1
  5192 ;; Tracked objects:
  5193 ;;		On entry : 0/0
  5194 ;;		On exit  : 0/0
  5195 ;;		Unchanged: 0/0
  5196 ;; Data sizes:     COMMON   BANK0   BANK1   BANK3   BANK2
  5197 ;;      Params:         1       0       0       0       0
  5198 ;;      Locals:         3       0       0       0       0
  5199 ;;      Temps:          0       0       0       0       0
  5200 ;;      Totals:         4       0       0       0       0
  5201 ;;Total ram usage:        4 bytes
  5202 ;; Hardware stack levels used: 1
  5203 ;; This function calls:
  5204 ;;		Nothing
  5205 ;; This function is called by:
  5206 ;;		_convert_float_to_string
  5207 ;; This function uses a non-reentrant model
  5208 ;;
  5209                           
  5210     156B                     ___lbdiv:	
  5211                           ;psect for function ___lbdiv
  5212                           
  5213                           
  5214                           ;incstack = 0
  5215                           ; Regs used in ___lbdiv: [wreg+status,2+status,0+btemp+1]
  5216                           ;___lbdiv@dividend stored from wreg
  5217     156B  00F1               	movwf	___lbdiv@dividend
  5218     156C                     l4779:
  5219     156C  01F3               	clrf	___lbdiv@quotient
  5220     156D                     l4781:
  5221     156D  0870               	movf	___lbdiv@divisor,w
  5222     156E  1903               	btfsc	3,2
  5223     156F  2D71               	goto	u6301
  5224     1570  2D72               	goto	u6300
  5225     1571                     u6301:
  5226     1571  2D92               	goto	l4801
  5227     1572                     u6300:
  5228     1572                     l4783:
  5229     1572  01F2               	clrf	___lbdiv@counter
  5230     1573  0AF2               	incf	___lbdiv@counter,f
  5231     1574  2D7B               	goto	l4789
  5232     1575                     l4785:
  5233     1575  1003               	clrc
  5234     1576  0DF0               	rlf	___lbdiv@divisor,f
  5235     1577                     l4787:
  5236     1577  3001               	movlw	1
  5237     1578  00FF               	movwf	btemp+1
  5238     1579  087F               	movf	btemp+1,w
  5239     157A  07F2               	addwf	___lbdiv@counter,f
  5240     157B                     l4789:
  5241     157B  1FF0               	btfss	___lbdiv@divisor,7
  5242     157C  2D7E               	goto	u6311
  5243     157D  2D7F               	goto	u6310
  5244     157E                     u6311:
  5245     157E  2D75               	goto	l4785
  5246     157F                     u6310:
  5247     157F                     l4791:
  5248     157F  1003               	clrc
  5249     1580  0DF3               	rlf	___lbdiv@quotient,f
  5250     1581  0870               	movf	___lbdiv@divisor,w
  5251     1582  0271               	subwf	___lbdiv@dividend,w
  5252     1583  1C03               	skipc
  5253     1584  2D86               	goto	u6321
  5254     1585  2D87               	goto	u6320
  5255     1586                     u6321:
  5256     1586  2D8A               	goto	l4797
  5257     1587                     u6320:
  5258     1587                     l4793:
  5259     1587  0870               	movf	___lbdiv@divisor,w
  5260     1588  02F1               	subwf	___lbdiv@dividend,f
  5261     1589                     l4795:
  5262     1589  1473               	bsf	___lbdiv@quotient,0
  5263     158A                     l4797:
  5264     158A  1003               	clrc
  5265     158B  0CF0               	rrf	___lbdiv@divisor,f
  5266     158C                     l4799:
  5267     158C  3001               	movlw	1
  5268     158D  02F2               	subwf	___lbdiv@counter,f
  5269     158E  1D03               	btfss	3,2
  5270     158F  2D91               	goto	u6331
  5271     1590  2D92               	goto	u6330
  5272     1591                     u6331:
  5273     1591  2D7F               	goto	l4791
  5274     1592                     u6330:
  5275     1592                     l4801:
  5276     1592  0873               	movf	___lbdiv@quotient,w
  5277     1593                     l723:
  5278     1593  0008               	return
  5279     1594                     __end_of___lbdiv:
  5280                           
  5281                           	psect	text20
  5282     0870                     __ptext20:	
  5283 ;; *************** function ___fltol *****************
  5284 ;; Defined at:
  5285 ;;		line 43 in file "C:\Program Files\Microchip\xc8\v2.45\pic\sources\c99\common\fltol.c"
  5286 ;; Parameters:    Size  Location     Type
  5287 ;;  f1              4    0[COMMON] unsigned char 
  5288 ;; Auto vars:     Size  Location     Type
  5289 ;;  exp1            1    9[COMMON] unsigned char 
  5290 ;;  sign1           1    8[COMMON] unsigned char 
  5291 ;; Return value:  Size  Location     Type
  5292 ;;                  4    0[COMMON] long 
  5293 ;; Registers used:
  5294 ;;		wreg, status,2, status,0, btemp+1
  5295 ;; Tracked objects:
  5296 ;;		On entry : 0/0
  5297 ;;		On exit  : 0/0
  5298 ;;		Unchanged: 0/0
  5299 ;; Data sizes:     COMMON   BANK0   BANK1   BANK3   BANK2
  5300 ;;      Params:         4       0       0       0       0
  5301 ;;      Locals:         2       0       0       0       0
  5302 ;;      Temps:          4       0       0       0       0
  5303 ;;      Totals:        10       0       0       0       0
  5304 ;;Total ram usage:       10 bytes
  5305 ;; Hardware stack levels used: 1
  5306 ;; This function calls:
  5307 ;;		Nothing
  5308 ;; This function is called by:
  5309 ;;		_convert_float_to_string
  5310 ;; This function uses a non-reentrant model
  5311 ;;
  5312                           
  5313     0870                     ___fltol:	
  5314                           ;psect for function ___fltol
  5315                           
  5316     0870                     l4741:	
  5317                           ;incstack = 0
  5318                           ; Regs used in ___fltol: [wreg+status,2+status,0+btemp+1]
  5319                           
  5320     0870  1003               	clrc
  5321     0871  0D72               	rlf	___fltol@f1+2,w
  5322     0872  0D73               	rlf	___fltol@f1+3,w
  5323     0873  00F9               	movwf	___fltol@exp1
  5324     0874  0879               	movf	___fltol@exp1,w
  5325     0875  1D03               	btfss	3,2
  5326     0876  2878               	goto	u6201
  5327     0877  2879               	goto	u6200
  5328     0878                     u6201:
  5329     0878  2882               	goto	l4747
  5330     0879                     u6200:
  5331     0879                     l4743:
  5332     0879  3000               	movlw	0
  5333     087A  00F3               	movwf	?___fltol+3
  5334     087B  3000               	movlw	0
  5335     087C  00F2               	movwf	?___fltol+2
  5336     087D  3000               	movlw	0
  5337     087E  00F1               	movwf	?___fltol+1
  5338     087F  3000               	movlw	0
  5339     0880  00F0               	movwf	?___fltol
  5340     0881  28E5               	goto	l703
  5341     0882                     l4747:
  5342     0882  0870               	movf	___fltol@f1,w
  5343     0883  00F4               	movwf	??___fltol
  5344     0884  0871               	movf	___fltol@f1+1,w
  5345     0885  00F5               	movwf	??___fltol+1
  5346     0886  0872               	movf	___fltol@f1+2,w
  5347     0887  00F6               	movwf	??___fltol+2
  5348     0888  0873               	movf	___fltol@f1+3,w
  5349     0889  00F7               	movwf	??___fltol+3
  5350     088A  301F               	movlw	31
  5351     088B                     u6215:
  5352     088B  1003               	clrc
  5353     088C  0CF7               	rrf	??___fltol+3,f
  5354     088D  0CF6               	rrf	??___fltol+2,f
  5355     088E  0CF5               	rrf	??___fltol+1,f
  5356     088F  0CF4               	rrf	??___fltol,f
  5357     0890                     u6210:
  5358     0890  3EFF               	addlw	-1
  5359     0891  1D03               	skipz
  5360     0892  288B               	goto	u6215
  5361     0893  0874               	movf	??___fltol,w
  5362     0894  00F8               	movwf	___fltol@sign1
  5363     0895                     l4749:
  5364     0895  17F2               	bsf	___fltol@f1+2,7
  5365     0896                     l4751:
  5366     0896  30FF               	movlw	255
  5367     0897  05F0               	andwf	___fltol@f1,f
  5368     0898  30FF               	movlw	255
  5369     0899  05F1               	andwf	___fltol@f1+1,f
  5370     089A  30FF               	movlw	255
  5371     089B  05F2               	andwf	___fltol@f1+2,f
  5372     089C  3000               	movlw	0
  5373     089D  05F3               	andwf	___fltol@f1+3,f
  5374     089E                     l4753:
  5375     089E  3096               	movlw	150
  5376     089F  02F9               	subwf	___fltol@exp1,f
  5377     08A0                     l4755:
  5378     08A0  1FF9               	btfss	___fltol@exp1,7
  5379     08A1  28A3               	goto	u6221
  5380     08A2  28A4               	goto	u6220
  5381     08A3                     u6221:
  5382     08A3  28BE               	goto	l4767
  5383     08A4                     u6220:
  5384     08A4                     l4757:
  5385     08A4  0879               	movf	___fltol@exp1,w
  5386     08A5  3A80               	xorlw	128
  5387     08A6  3E97               	addlw	151
  5388     08A7  1803               	skipnc
  5389     08A8  28AA               	goto	u6231
  5390     08A9  28AB               	goto	u6230
  5391     08AA                     u6231:
  5392     08AA  28AC               	goto	l4763
  5393     08AB                     u6230:
  5394     08AB  2879               	goto	l4743
  5395     08AC                     l4763:
  5396     08AC  3001               	movlw	1
  5397     08AD                     u6245:
  5398     08AD  1003               	clrc
  5399     08AE  0CF3               	rrf	___fltol@f1+3,f
  5400     08AF  0CF2               	rrf	___fltol@f1+2,f
  5401     08B0  0CF1               	rrf	___fltol@f1+1,f
  5402     08B1  0CF0               	rrf	___fltol@f1,f
  5403     08B2  3EFF               	addlw	-1
  5404     08B3  1D03               	skipz
  5405     08B4  28AD               	goto	u6245
  5406     08B5                     l4765:
  5407     08B5  3001               	movlw	1
  5408     08B6  00FF               	movwf	btemp+1
  5409     08B7  087F               	movf	btemp+1,w
  5410     08B8  07F9               	addwf	___fltol@exp1,f
  5411     08B9  1D03               	btfss	3,2
  5412     08BA  28BC               	goto	u6251
  5413     08BB  28BD               	goto	u6250
  5414     08BC                     u6251:
  5415     08BC  28AC               	goto	l4763
  5416     08BD                     u6250:
  5417     08BD  28D5               	goto	l4775
  5418     08BE                     l4767:
  5419     08BE  3020               	movlw	32
  5420     08BF  0279               	subwf	___fltol@exp1,w
  5421     08C0  1C03               	skipc
  5422     08C1  28C3               	goto	u6261
  5423     08C2  28C4               	goto	u6260
  5424     08C3                     u6261:
  5425     08C3  28D0               	goto	l710
  5426     08C4                     u6260:
  5427     08C4  2879               	goto	l4743
  5428     08C5                     l4773:
  5429     08C5  3001               	movlw	1
  5430     08C6  00F4               	movwf	??___fltol
  5431     08C7                     u6275:
  5432     08C7  1003               	clrc
  5433     08C8  0DF0               	rlf	___fltol@f1,f
  5434     08C9  0DF1               	rlf	___fltol@f1+1,f
  5435     08CA  0DF2               	rlf	___fltol@f1+2,f
  5436     08CB  0DF3               	rlf	___fltol@f1+3,f
  5437     08CC  0BF4               	decfsz	??___fltol,f
  5438     08CD  28C7               	goto	u6275
  5439     08CE  3001               	movlw	1
  5440     08CF  02F9               	subwf	___fltol@exp1,f
  5441     08D0                     l710:
  5442     08D0  0879               	movf	___fltol@exp1,w
  5443     08D1  1D03               	btfss	3,2
  5444     08D2  28D4               	goto	u6281
  5445     08D3  28D5               	goto	u6280
  5446     08D4                     u6281:
  5447     08D4  28C5               	goto	l4773
  5448     08D5                     u6280:
  5449     08D5                     l4775:
  5450     08D5  0878               	movf	___fltol@sign1,w
  5451     08D6  1903               	btfsc	3,2
  5452     08D7  28D9               	goto	u6291
  5453     08D8  28DA               	goto	u6290
  5454     08D9                     u6291:
  5455     08D9  28E5               	goto	l713
  5456     08DA                     u6290:
  5457     08DA                     l4777:
  5458     08DA  09F0               	comf	___fltol@f1,f
  5459     08DB  09F1               	comf	___fltol@f1+1,f
  5460     08DC  09F2               	comf	___fltol@f1+2,f
  5461     08DD  09F3               	comf	___fltol@f1+3,f
  5462     08DE  0AF0               	incf	___fltol@f1,f
  5463     08DF  1903               	skipnz
  5464     08E0  0AF1               	incf	___fltol@f1+1,f
  5465     08E1  1903               	skipnz
  5466     08E2  0AF2               	incf	___fltol@f1+2,f
  5467     08E3  1903               	skipnz
  5468     08E4  0AF3               	incf	___fltol@f1+3,f
  5469     08E5                     l713:
  5470     08E5                     l703:
  5471     08E5  0008               	return
  5472     08E6                     __end_of___fltol:
  5473                           
  5474                           	psect	text21
  5475     1520                     __ptext21:	
  5476 ;; *************** function ___flsub *****************
  5477 ;; Defined at:
  5478 ;;		line 242 in file "C:\Program Files\Microchip\xc8\v2.45\pic\sources\c99\common\sprcadd.c"
  5479 ;; Parameters:    Size  Location     Type
  5480 ;;  a               4   30[BANK0 ] long 
  5481 ;;  b               4   34[BANK0 ] long 
  5482 ;; Auto vars:     Size  Location     Type
  5483 ;;		None
  5484 ;; Return value:  Size  Location     Type
  5485 ;;                  4   30[BANK0 ] long 
  5486 ;; Registers used:
  5487 ;;		wreg, status,2, status,0, btemp+1, pclath, cstack
  5488 ;; Tracked objects:
  5489 ;;		On entry : 0/0
  5490 ;;		On exit  : 0/0
  5491 ;;		Unchanged: 0/0
  5492 ;; Data sizes:     COMMON   BANK0   BANK1   BANK3   BANK2
  5493 ;;      Params:         0       8       0       0       0
  5494 ;;      Locals:         0       0       0       0       0
  5495 ;;      Temps:          0       0       0       0       0
  5496 ;;      Totals:         0       8       0       0       0
  5497 ;;Total ram usage:        8 bytes
  5498 ;; Hardware stack levels used: 1
  5499 ;; Hardware stack levels required when called: 1
  5500 ;; This function calls:
  5501 ;;		___fladd
  5502 ;; This function is called by:
  5503 ;;		_convert_float_to_string
  5504 ;;		_main
  5505 ;; This function uses a non-reentrant model
  5506 ;;
  5507                           
  5508     1520                     ___flsub:	
  5509                           ;psect for function ___flsub
  5510                           
  5511     1520                     l4821:	
  5512                           ;incstack = 0
  5513                           ; Regs used in ___flsub: [wreg+status,2+status,0+btemp+1+pclath+cstack]
  5514                           
  5515     1520  3080               	movlw	128
  5516     1521  1283               	bcf	3,5	;RP0=0, select bank0
  5517     1522  1303               	bcf	3,6	;RP1=0, select bank0
  5518     1523  06C1               	xorwf	___flsub@a+3,f
  5519     1524                     l4823:
  5520     1524  0845               	movf	___flsub@b+3,w
  5521     1525  00AD               	movwf	___fladd@b+3
  5522     1526  0844               	movf	___flsub@b+2,w
  5523     1527  00AC               	movwf	___fladd@b+2
  5524     1528  0843               	movf	___flsub@b+1,w
  5525     1529  00AB               	movwf	___fladd@b+1
  5526     152A  0842               	movf	___flsub@b,w
  5527     152B  00AA               	movwf	___fladd@b
  5528     152C  0841               	movf	___flsub@a+3,w
  5529     152D  00B1               	movwf	___fladd@a+3
  5530     152E  0840               	movf	___flsub@a+2,w
  5531     152F  00B0               	movwf	___fladd@a+2
  5532     1530  083F               	movf	___flsub@a+1,w
  5533     1531  00AF               	movwf	___fladd@a+1
  5534     1532  083E               	movf	___flsub@a,w
  5535     1533  00AE               	movwf	___fladd@a
  5536     1534  120A  118A  2234  160A  118A  	fcall	___fladd
  5537     1539  1283               	bcf	3,5	;RP0=0, select bank0
  5538     153A  1303               	bcf	3,6	;RP1=0, select bank0
  5539     153B  082D               	movf	?___fladd+3,w
  5540     153C  00C1               	movwf	?___flsub+3
  5541     153D  082C               	movf	?___fladd+2,w
  5542     153E  00C0               	movwf	?___flsub+2
  5543     153F  082B               	movf	?___fladd+1,w
  5544     1540  00BF               	movwf	?___flsub+1
  5545     1541  082A               	movf	?___fladd,w
  5546     1542  00BE               	movwf	?___flsub
  5547     1543                     l856:
  5548     1543  0008               	return
  5549     1544                     __end_of___flsub:
  5550                           
  5551                           	psect	text22
  5552     0234                     __ptext22:	
  5553 ;; *************** function ___fladd *****************
  5554 ;; Defined at:
  5555 ;;		line 10 in file "C:\Program Files\Microchip\xc8\v2.45\pic\sources\c99\common\sprcadd.c"
  5556 ;; Parameters:    Size  Location     Type
  5557 ;;  b               4   10[BANK0 ] long 
  5558 ;;  a               4   14[BANK0 ] long 
  5559 ;; Auto vars:     Size  Location     Type
  5560 ;;  grs             1   29[BANK0 ] unsigned char 
  5561 ;;  bexp            1   28[BANK0 ] unsigned char 
  5562 ;;  aexp            1   27[BANK0 ] unsigned char 
  5563 ;;  signs           1   26[BANK0 ] unsigned char 
  5564 ;; Return value:  Size  Location     Type
  5565 ;;                  4   10[BANK0 ] unsigned char 
  5566 ;; Registers used:
  5567 ;;		wreg, status,2, status,0, btemp+1
  5568 ;; Tracked objects:
  5569 ;;		On entry : 0/0
  5570 ;;		On exit  : 0/0
  5571 ;;		Unchanged: 0/0
  5572 ;; Data sizes:     COMMON   BANK0   BANK1   BANK3   BANK2
  5573 ;;      Params:         0       8       0       0       0
  5574 ;;      Locals:         0       4       0       0       0
  5575 ;;      Temps:          0       8       0       0       0
  5576 ;;      Totals:         0      20       0       0       0
  5577 ;;Total ram usage:       20 bytes
  5578 ;; Hardware stack levels used: 1
  5579 ;; This function calls:
  5580 ;;		Nothing
  5581 ;; This function is called by:
  5582 ;;		_main
  5583 ;;		___flsub
  5584 ;; This function uses a non-reentrant model
  5585 ;;
  5586                           
  5587     0234                     ___fladd:	
  5588                           ;psect for function ___fladd
  5589                           
  5590     0234                     l4355:	
  5591                           ;incstack = 0
  5592                           ; Regs used in ___fladd: [wreg+status,2+status,0+btemp+1]
  5593                           
  5594     0234  1283               	bcf	3,5	;RP0=0, select bank0
  5595     0235  1303               	bcf	3,6	;RP1=0, select bank0
  5596     0236  082D               	movf	___fladd@b+3,w
  5597     0237  3980               	andlw	128
  5598     0238  00BA               	movwf	___fladd@signs
  5599     0239                     l4357:
  5600     0239  082D               	movf	___fladd@b+3,w
  5601     023A  00B2               	movwf	??___fladd
  5602     023B  0732               	addwf	??___fladd,w
  5603     023C  00BC               	movwf	___fladd@bexp
  5604     023D                     l4359:
  5605     023D  1FAC               	btfss	___fladd@b+2,7
  5606     023E  2A40               	goto	u5411
  5607     023F  2A41               	goto	u5410
  5608     0240                     u5411:
  5609     0240  2A42               	goto	l4363
  5610     0241                     u5410:
  5611     0241                     l4361:
  5612     0241  143C               	bsf	___fladd@bexp,0
  5613     0242                     l4363:
  5614     0242  083C               	movf	___fladd@bexp,w
  5615     0243  1903               	btfsc	3,2
  5616     0244  2A46               	goto	u5421
  5617     0245  2A47               	goto	u5420
  5618     0246                     u5421:
  5619     0246  2A57               	goto	l4373
  5620     0247                     u5420:
  5621     0247                     l4365:
  5622     0247  0A3C               	incf	___fladd@bexp,w
  5623     0248  1D03               	btfss	3,2
  5624     0249  2A4B               	goto	u5431
  5625     024A  2A4C               	goto	u5430
  5626     024B                     u5431:
  5627     024B  2A54               	goto	l4369
  5628     024C                     u5430:
  5629     024C                     l4367:
  5630     024C  3000               	movlw	0
  5631     024D  00AD               	movwf	___fladd@b+3
  5632     024E  3000               	movlw	0
  5633     024F  00AC               	movwf	___fladd@b+2
  5634     0250  3000               	movlw	0
  5635     0251  00AB               	movwf	___fladd@b+1
  5636     0252  3000               	movlw	0
  5637     0253  00AA               	movwf	___fladd@b
  5638     0254                     l4369:
  5639     0254  17AC               	bsf	___fladd@b+2,7
  5640     0255                     l4371:
  5641     0255  01AD               	clrf	___fladd@b+3
  5642     0256  2A5F               	goto	l4375
  5643     0257                     l4373:
  5644     0257  3000               	movlw	0
  5645     0258  00AD               	movwf	___fladd@b+3
  5646     0259  3000               	movlw	0
  5647     025A  00AC               	movwf	___fladd@b+2
  5648     025B  3000               	movlw	0
  5649     025C  00AB               	movwf	___fladd@b+1
  5650     025D  3000               	movlw	0
  5651     025E  00AA               	movwf	___fladd@b
  5652     025F                     l4375:
  5653     025F  0831               	movf	___fladd@a+3,w
  5654     0260  3980               	andlw	128
  5655     0261  00BB               	movwf	___fladd@aexp
  5656     0262                     l4377:
  5657     0262  083B               	movf	___fladd@aexp,w
  5658     0263  063A               	xorwf	___fladd@signs,w
  5659     0264  1903               	skipnz
  5660     0265  2A67               	goto	u5441
  5661     0266  2A68               	goto	u5440
  5662     0267                     u5441:
  5663     0267  2A69               	goto	l4381
  5664     0268                     u5440:
  5665     0268                     l4379:
  5666     0268  173A               	bsf	___fladd@signs,6
  5667     0269                     l4381:
  5668     0269  0831               	movf	___fladd@a+3,w
  5669     026A  00B2               	movwf	??___fladd
  5670     026B  0732               	addwf	??___fladd,w
  5671     026C  00BB               	movwf	___fladd@aexp
  5672     026D                     l4383:
  5673     026D  1FB0               	btfss	___fladd@a+2,7
  5674     026E  2A70               	goto	u5451
  5675     026F  2A71               	goto	u5450
  5676     0270                     u5451:
  5677     0270  2A72               	goto	l4387
  5678     0271                     u5450:
  5679     0271                     l4385:
  5680     0271  143B               	bsf	___fladd@aexp,0
  5681     0272                     l4387:
  5682     0272  083B               	movf	___fladd@aexp,w
  5683     0273  1903               	btfsc	3,2
  5684     0274  2A76               	goto	u5461
  5685     0275  2A77               	goto	u5460
  5686     0276                     u5461:
  5687     0276  2A87               	goto	l4397
  5688     0277                     u5460:
  5689     0277                     l4389:
  5690     0277  0A3B               	incf	___fladd@aexp,w
  5691     0278  1D03               	btfss	3,2
  5692     0279  2A7B               	goto	u5471
  5693     027A  2A7C               	goto	u5470
  5694     027B                     u5471:
  5695     027B  2A84               	goto	l4393
  5696     027C                     u5470:
  5697     027C                     l4391:
  5698     027C  3000               	movlw	0
  5699     027D  00B1               	movwf	___fladd@a+3
  5700     027E  3000               	movlw	0
  5701     027F  00B0               	movwf	___fladd@a+2
  5702     0280  3000               	movlw	0
  5703     0281  00AF               	movwf	___fladd@a+1
  5704     0282  3000               	movlw	0
  5705     0283  00AE               	movwf	___fladd@a
  5706     0284                     l4393:
  5707     0284  17B0               	bsf	___fladd@a+2,7
  5708     0285                     l4395:
  5709     0285  01B1               	clrf	___fladd@a+3
  5710     0286  2A8F               	goto	l810
  5711     0287                     l4397:
  5712     0287  3000               	movlw	0
  5713     0288  00B1               	movwf	___fladd@a+3
  5714     0289  3000               	movlw	0
  5715     028A  00B0               	movwf	___fladd@a+2
  5716     028B  3000               	movlw	0
  5717     028C  00AF               	movwf	___fladd@a+1
  5718     028D  3000               	movlw	0
  5719     028E  00AE               	movwf	___fladd@a
  5720     028F                     l810:
  5721     028F  083C               	movf	___fladd@bexp,w
  5722     0290  023B               	subwf	___fladd@aexp,w
  5723     0291  1803               	skipnc
  5724     0292  2A94               	goto	u5481
  5725     0293  2A95               	goto	u5480
  5726     0294                     u5481:
  5727     0294  2ABB               	goto	l4433
  5728     0295                     u5480:
  5729     0295                     l4399:
  5730     0295  1F3A               	btfss	___fladd@signs,6
  5731     0296  2A98               	goto	u5491
  5732     0297  2A99               	goto	u5490
  5733     0298                     u5491:
  5734     0298  2A9D               	goto	l4403
  5735     0299                     u5490:
  5736     0299                     l4401:
  5737     0299  3080               	movlw	128
  5738     029A  00FF               	movwf	btemp+1
  5739     029B  087F               	movf	btemp+1,w
  5740     029C  06BA               	xorwf	___fladd@signs,f
  5741     029D                     l4403:
  5742     029D  083C               	movf	___fladd@bexp,w
  5743     029E  00BD               	movwf	___fladd@grs
  5744     029F                     l4405:
  5745     029F  083B               	movf	___fladd@aexp,w
  5746     02A0  00BC               	movwf	___fladd@bexp
  5747     02A1                     l4407:
  5748     02A1  083D               	movf	___fladd@grs,w
  5749     02A2  00BB               	movwf	___fladd@aexp
  5750     02A3                     l4409:
  5751     02A3  082A               	movf	___fladd@b,w
  5752     02A4  00BD               	movwf	___fladd@grs
  5753     02A5                     l4411:
  5754     02A5  082E               	movf	___fladd@a,w
  5755     02A6  00AA               	movwf	___fladd@b
  5756     02A7                     l4413:
  5757     02A7  083D               	movf	___fladd@grs,w
  5758     02A8  00AE               	movwf	___fladd@a
  5759     02A9                     l4415:
  5760     02A9  082B               	movf	___fladd@b+1,w
  5761     02AA  00BD               	movwf	___fladd@grs
  5762     02AB                     l4417:
  5763     02AB  082F               	movf	___fladd@a+1,w
  5764     02AC  00AB               	movwf	___fladd@b+1
  5765     02AD                     l4419:
  5766     02AD  083D               	movf	___fladd@grs,w
  5767     02AE  00AF               	movwf	___fladd@a+1
  5768     02AF                     l4421:
  5769     02AF  082C               	movf	___fladd@b+2,w
  5770     02B0  00BD               	movwf	___fladd@grs
  5771     02B1                     l4423:
  5772     02B1  0830               	movf	___fladd@a+2,w
  5773     02B2  00AC               	movwf	___fladd@b+2
  5774     02B3                     l4425:
  5775     02B3  083D               	movf	___fladd@grs,w
  5776     02B4  00B0               	movwf	___fladd@a+2
  5777     02B5                     l4427:
  5778     02B5  082D               	movf	___fladd@b+3,w
  5779     02B6  00BD               	movwf	___fladd@grs
  5780     02B7                     l4429:
  5781     02B7  0831               	movf	___fladd@a+3,w
  5782     02B8  00AD               	movwf	___fladd@b+3
  5783     02B9                     l4431:
  5784     02B9  083D               	movf	___fladd@grs,w
  5785     02BA  00B1               	movwf	___fladd@a+3
  5786     02BB                     l4433:
  5787     02BB  01BD               	clrf	___fladd@grs
  5788     02BC                     l4435:
  5789     02BC  083B               	movf	___fladd@aexp,w
  5790     02BD  00B2               	movwf	??___fladd
  5791     02BE  01B3               	clrf	??___fladd+1
  5792     02BF  0833               	movf	??___fladd+1,w
  5793     02C0  00B5               	movwf	??___fladd+3
  5794     02C1  083C               	movf	___fladd@bexp,w
  5795     02C2  0232               	subwf	??___fladd,w
  5796     02C3  00B4               	movwf	??___fladd+2
  5797     02C4  1C03               	skipc
  5798     02C5  03B5               	decf	??___fladd+3,f
  5799     02C6  0835               	movf	??___fladd+3,w
  5800     02C7  3A80               	xorlw	128
  5801     02C8  00FF               	movwf	btemp+1
  5802     02C9  3080               	movlw	128
  5803     02CA  027F               	subwf	btemp+1,w
  5804     02CB  1D03               	skipz
  5805     02CC  2ACF               	goto	u5505
  5806     02CD  301A               	movlw	26
  5807     02CE  0234               	subwf	??___fladd+2,w
  5808     02CF                     u5505:
  5809     02CF  1C03               	skipc
  5810     02D0  2AD2               	goto	u5501
  5811     02D1  2AD3               	goto	u5500
  5812     02D2                     u5501:
  5813     02D2  2B0A               	goto	l4451
  5814     02D3                     u5500:
  5815     02D3                     l4437:
  5816     02D3  1283               	bcf	3,5	;RP0=0, select bank0
  5817     02D4  1303               	bcf	3,6	;RP1=0, select bank0
  5818     02D5  082D               	movf	___fladd@b+3,w
  5819     02D6  042C               	iorwf	___fladd@b+2,w
  5820     02D7  042B               	iorwf	___fladd@b+1,w
  5821     02D8  042A               	iorwf	___fladd@b,w
  5822     02D9  1D03               	skipz
  5823     02DA  2ADC               	goto	u5511
  5824     02DB  2ADE               	goto	u5510
  5825     02DC                     u5511:
  5826     02DC  3001               	movlw	1
  5827     02DD  2ADF               	goto	u5520
  5828     02DE                     u5510:
  5829     02DE  3000               	movlw	0
  5830     02DF                     u5520:
  5831     02DF  00BD               	movwf	___fladd@grs
  5832     02E0  3000               	movlw	0
  5833     02E1  00AD               	movwf	___fladd@b+3
  5834     02E2  3000               	movlw	0
  5835     02E3  00AC               	movwf	___fladd@b+2
  5836     02E4  3000               	movlw	0
  5837     02E5  00AB               	movwf	___fladd@b+1
  5838     02E6  3000               	movlw	0
  5839     02E7  00AA               	movwf	___fladd@b
  5840     02E8  083B               	movf	___fladd@aexp,w
  5841     02E9  00BC               	movwf	___fladd@bexp
  5842     02EA  2B12               	goto	l814
  5843     02EB                     l816:
  5844     02EB  1C3D               	btfss	___fladd@grs,0
  5845     02EC  2AEE               	goto	u5531
  5846     02ED  2AEF               	goto	u5530
  5847     02EE                     u5531:
  5848     02EE  2AF6               	goto	l4441
  5849     02EF                     u5530:
  5850     02EF                     l4439:
  5851     02EF  083D               	movf	___fladd@grs,w
  5852     02F0  00B2               	movwf	??___fladd
  5853     02F1  1003               	clrc
  5854     02F2  0C32               	rrf	??___fladd,w
  5855     02F3  3801               	iorlw	1
  5856     02F4  00BD               	movwf	___fladd@grs
  5857     02F5  2AF8               	goto	l4443
  5858     02F6                     l4441:
  5859     02F6  1003               	clrc
  5860     02F7  0CBD               	rrf	___fladd@grs,f
  5861     02F8                     l4443:
  5862     02F8  1C2A               	btfss	___fladd@b,0
  5863     02F9  2AFB               	goto	u5541
  5864     02FA  2AFC               	goto	u5540
  5865     02FB                     u5541:
  5866     02FB  2AFD               	goto	l4447
  5867     02FC                     u5540:
  5868     02FC                     l4445:
  5869     02FC  17BD               	bsf	___fladd@grs,7
  5870     02FD                     l4447:
  5871     02FD  3001               	movlw	1
  5872     02FE  00B2               	movwf	??___fladd
  5873     02FF                     u5555:
  5874     02FF  0D2D               	rlf	___fladd@b+3,w
  5875     0300  0CAD               	rrf	___fladd@b+3,f
  5876     0301  0CAC               	rrf	___fladd@b+2,f
  5877     0302  0CAB               	rrf	___fladd@b+1,f
  5878     0303  0CAA               	rrf	___fladd@b,f
  5879     0304  0BB2               	decfsz	??___fladd& (0+127),f
  5880     0305  2AFF               	goto	u5555
  5881     0306                     l4449:
  5882     0306  3001               	movlw	1
  5883     0307  00FF               	movwf	btemp+1
  5884     0308  087F               	movf	btemp+1,w
  5885     0309  07BC               	addwf	___fladd@bexp,f
  5886     030A                     l4451:
  5887     030A  1283               	bcf	3,5	;RP0=0, select bank0
  5888     030B  1303               	bcf	3,6	;RP1=0, select bank0
  5889     030C  083B               	movf	___fladd@aexp,w
  5890     030D  023C               	subwf	___fladd@bexp,w
  5891     030E  1C03               	skipc
  5892     030F  2B11               	goto	u5561
  5893     0310  2B12               	goto	u5560
  5894     0311                     u5561:
  5895     0311  2AEB               	goto	l816
  5896     0312                     u5560:
  5897     0312                     l814:
  5898     0312  1B3A               	btfsc	___fladd@signs,6
  5899     0313  2B15               	goto	u5571
  5900     0314  2B16               	goto	u5570
  5901     0315                     u5571:
  5902     0315  2B5F               	goto	l4477
  5903     0316                     u5570:
  5904     0316                     l4453:
  5905     0316  083C               	movf	___fladd@bexp,w
  5906     0317  1D03               	btfss	3,2
  5907     0318  2B1A               	goto	u5581
  5908     0319  2B1B               	goto	u5580
  5909     031A                     u5581:
  5910     031A  2B24               	goto	l4459
  5911     031B                     u5580:
  5912     031B                     l4455:
  5913     031B  3000               	movlw	0
  5914     031C  00AD               	movwf	?___fladd+3
  5915     031D  3000               	movlw	0
  5916     031E  00AC               	movwf	?___fladd+2
  5917     031F  3000               	movlw	0
  5918     0320  00AB               	movwf	?___fladd+1
  5919     0321  3000               	movlw	0
  5920     0322  00AA               	movwf	?___fladd
  5921     0323  2C8B               	goto	l823
  5922     0324                     l4459:
  5923     0324  082E               	movf	___fladd@a,w
  5924     0325  07AA               	addwf	___fladd@b,f
  5925     0326  082F               	movf	___fladd@a+1,w
  5926     0327  1103               	clrz
  5927     0328  1803               	skipnc
  5928     0329  3E01               	addlw	1
  5929     032A  1903               	skipnz
  5930     032B  2B2D               	goto	u5591
  5931     032C  07AB               	addwf	___fladd@b+1,f
  5932     032D                     u5591:
  5933     032D  0830               	movf	___fladd@a+2,w
  5934     032E  1103               	clrz
  5935     032F  1803               	skipnc
  5936     0330  3E01               	addlw	1
  5937     0331  1903               	skipnz
  5938     0332  2B34               	goto	u5592
  5939     0333  07AC               	addwf	___fladd@b+2,f
  5940     0334                     u5592:
  5941     0334  0831               	movf	___fladd@a+3,w
  5942     0335  1103               	clrz
  5943     0336  1803               	skipnc
  5944     0337  3E01               	addlw	1
  5945     0338  1903               	skipnz
  5946     0339  2B3B               	goto	u5593
  5947     033A  07AD               	addwf	___fladd@b+3,f
  5948     033B                     u5593:
  5949     033B                     l4461:
  5950     033B  1C2D               	btfss	___fladd@b+3,0
  5951     033C  2B3E               	goto	u5601
  5952     033D  2B3F               	goto	u5600
  5953     033E                     u5601:
  5954     033E  2C13               	goto	l4513
  5955     033F                     u5600:
  5956     033F                     l4463:
  5957     033F  1C3D               	btfss	___fladd@grs,0
  5958     0340  2B42               	goto	u5611
  5959     0341  2B43               	goto	u5610
  5960     0342                     u5611:
  5961     0342  2B4A               	goto	l4467
  5962     0343                     u5610:
  5963     0343                     l4465:
  5964     0343  083D               	movf	___fladd@grs,w
  5965     0344  00B2               	movwf	??___fladd
  5966     0345  1003               	clrc
  5967     0346  0C32               	rrf	??___fladd,w
  5968     0347  3801               	iorlw	1
  5969     0348  00BD               	movwf	___fladd@grs
  5970     0349  2B4C               	goto	l4469
  5971     034A                     l4467:
  5972     034A  1003               	clrc
  5973     034B  0CBD               	rrf	___fladd@grs,f
  5974     034C                     l4469:
  5975     034C  1C2A               	btfss	___fladd@b,0
  5976     034D  2B4F               	goto	u5621
  5977     034E  2B50               	goto	u5620
  5978     034F                     u5621:
  5979     034F  2B51               	goto	l4473
  5980     0350                     u5620:
  5981     0350                     l4471:
  5982     0350  17BD               	bsf	___fladd@grs,7
  5983     0351                     l4473:
  5984     0351  3001               	movlw	1
  5985     0352  00B2               	movwf	??___fladd
  5986     0353                     u5635:
  5987     0353  0D2D               	rlf	___fladd@b+3,w
  5988     0354  0CAD               	rrf	___fladd@b+3,f
  5989     0355  0CAC               	rrf	___fladd@b+2,f
  5990     0356  0CAB               	rrf	___fladd@b+1,f
  5991     0357  0CAA               	rrf	___fladd@b,f
  5992     0358  0BB2               	decfsz	??___fladd& (0+127),f
  5993     0359  2B53               	goto	u5635
  5994     035A                     l4475:
  5995     035A  3001               	movlw	1
  5996     035B  00FF               	movwf	btemp+1
  5997     035C  087F               	movf	btemp+1,w
  5998     035D  07BC               	addwf	___fladd@bexp,f
  5999     035E  2C13               	goto	l4513
  6000     035F                     l4477:
  6001     035F  082D               	movf	___fladd@b+3,w
  6002     0360  3A80               	xorlw	128
  6003     0361  00FF               	movwf	btemp+1
  6004     0362  0831               	movf	___fladd@a+3,w
  6005     0363  3A80               	xorlw	128
  6006     0364  027F               	subwf	btemp+1,w
  6007     0365  1D03               	skipz
  6008     0366  2B71               	goto	u5643
  6009     0367  0830               	movf	___fladd@a+2,w
  6010     0368  022C               	subwf	___fladd@b+2,w
  6011     0369  1D03               	skipz
  6012     036A  2B71               	goto	u5643
  6013     036B  082F               	movf	___fladd@a+1,w
  6014     036C  022B               	subwf	___fladd@b+1,w
  6015     036D  1D03               	skipz
  6016     036E  2B71               	goto	u5643
  6017     036F  082E               	movf	___fladd@a,w
  6018     0370  022A               	subwf	___fladd@b,w
  6019     0371                     u5643:
  6020     0371  1803               	skipnc
  6021     0372  2B74               	goto	u5641
  6022     0373  2B75               	goto	u5640
  6023     0374                     u5641:
  6024     0374  2BCD               	goto	l4489
  6025     0375                     u5640:
  6026     0375                     l4479:
  6027     0375  30FF               	movlw	255
  6028     0376  00B2               	movwf	??___fladd
  6029     0377  30FF               	movlw	255
  6030     0378  00B3               	movwf	??___fladd+1
  6031     0379  30FF               	movlw	255
  6032     037A  00B4               	movwf	??___fladd+2
  6033     037B  30FF               	movlw	255
  6034     037C  00B5               	movwf	??___fladd+3
  6035     037D  082E               	movf	___fladd@a,w
  6036     037E  00B6               	movwf	??___fladd+4
  6037     037F  082F               	movf	___fladd@a+1,w
  6038     0380  00B7               	movwf	??___fladd+5
  6039     0381  0830               	movf	___fladd@a+2,w
  6040     0382  00B8               	movwf	??___fladd+6
  6041     0383  0831               	movf	___fladd@a+3,w
  6042     0384  00B9               	movwf	??___fladd+7
  6043     0385  082A               	movf	___fladd@b,w
  6044     0386  02B6               	subwf	??___fladd+4,f
  6045     0387  082B               	movf	___fladd@b+1,w
  6046     0388  1C03               	skipc
  6047     0389  0F2B               	incfsz	___fladd@b+1,w
  6048     038A  2B8C               	goto	u5651
  6049     038B  2B8D               	goto	u5652
  6050     038C                     u5651:
  6051     038C  02B7               	subwf	??___fladd+5,f
  6052     038D                     u5652:
  6053     038D  082C               	movf	___fladd@b+2,w
  6054     038E  1C03               	skipc
  6055     038F  0F2C               	incfsz	___fladd@b+2,w
  6056     0390  2B92               	goto	u5653
  6057     0391  2B93               	goto	u5654
  6058     0392                     u5653:
  6059     0392  02B8               	subwf	??___fladd+6,f
  6060     0393                     u5654:
  6061     0393  082D               	movf	___fladd@b+3,w
  6062     0394  1C03               	skipc
  6063     0395  0F2D               	incfsz	___fladd@b+3,w
  6064     0396  2B98               	goto	u5655
  6065     0397  2B99               	goto	u5656
  6066     0398                     u5655:
  6067     0398  02B9               	subwf	??___fladd+7,f
  6068     0399                     u5656:
  6069     0399  0836               	movf	??___fladd+4,w
  6070     039A  07B2               	addwf	??___fladd,f
  6071     039B  0837               	movf	??___fladd+5,w
  6072     039C  1803               	skipnc
  6073     039D  0F37               	incfsz	??___fladd+5,w
  6074     039E  2BA0               	goto	u5660
  6075     039F  2BA1               	goto	u5661
  6076     03A0                     u5660:
  6077     03A0  07B3               	addwf	??___fladd+1,f
  6078     03A1                     u5661:
  6079     03A1  0838               	movf	??___fladd+6,w
  6080     03A2  1803               	skipnc
  6081     03A3  0F38               	incfsz	??___fladd+6,w
  6082     03A4  2BA6               	goto	u5662
  6083     03A5  2BA7               	goto	u5663
  6084     03A6                     u5662:
  6085     03A6  07B4               	addwf	??___fladd+2,f
  6086     03A7                     u5663:
  6087     03A7  0839               	movf	??___fladd+7,w
  6088     03A8  1803               	skipnc
  6089     03A9  0A39               	incf	??___fladd+7,w
  6090     03AA  07B5               	addwf	??___fladd+3,f
  6091     03AB  0835               	movf	??___fladd+3,w
  6092     03AC  00AD               	movwf	___fladd@b+3
  6093     03AD  0834               	movf	??___fladd+2,w
  6094     03AE  00AC               	movwf	___fladd@b+2
  6095     03AF  0833               	movf	??___fladd+1,w
  6096     03B0  00AB               	movwf	___fladd@b+1
  6097     03B1  0832               	movf	??___fladd,w
  6098     03B2  00AA               	movwf	___fladd@b
  6099     03B3                     l4481:
  6100     03B3  3080               	movlw	128
  6101     03B4  00FF               	movwf	btemp+1
  6102     03B5  087F               	movf	btemp+1,w
  6103     03B6  06BA               	xorwf	___fladd@signs,f
  6104     03B7                     l4483:
  6105     03B7  09BD               	comf	___fladd@grs,f
  6106     03B8  0ABD               	incf	___fladd@grs,f
  6107     03B9                     l4485:
  6108     03B9  083D               	movf	___fladd@grs,w
  6109     03BA  1D03               	btfss	3,2
  6110     03BB  2BBD               	goto	u5671
  6111     03BC  2BBE               	goto	u5670
  6112     03BD                     u5671:
  6113     03BD  2BDB               	goto	l831
  6114     03BE                     u5670:
  6115     03BE                     l4487:
  6116     03BE  3001               	movlw	1
  6117     03BF  07AA               	addwf	___fladd@b,f
  6118     03C0  3000               	movlw	0
  6119     03C1  1803               	skipnc
  6120     03C2  3001               	movlw	1
  6121     03C3  07AB               	addwf	___fladd@b+1,f
  6122     03C4  3000               	movlw	0
  6123     03C5  1803               	skipnc
  6124     03C6  3001               	movlw	1
  6125     03C7  07AC               	addwf	___fladd@b+2,f
  6126     03C8  3000               	movlw	0
  6127     03C9  1803               	skipnc
  6128     03CA  3001               	movlw	1
  6129     03CB  07AD               	addwf	___fladd@b+3,f
  6130     03CC  2BDB               	goto	l831
  6131     03CD                     l4489:
  6132     03CD  082E               	movf	___fladd@a,w
  6133     03CE  02AA               	subwf	___fladd@b,f
  6134     03CF  082F               	movf	___fladd@a+1,w
  6135     03D0  1C03               	skipc
  6136     03D1  0F2F               	incfsz	___fladd@a+1,w
  6137     03D2  02AB               	subwf	___fladd@b+1,f
  6138     03D3  0830               	movf	___fladd@a+2,w
  6139     03D4  1C03               	skipc
  6140     03D5  0F30               	incfsz	___fladd@a+2,w
  6141     03D6  02AC               	subwf	___fladd@b+2,f
  6142     03D7  0831               	movf	___fladd@a+3,w
  6143     03D8  1C03               	skipc
  6144     03D9  0F31               	incfsz	___fladd@a+3,w
  6145     03DA  02AD               	subwf	___fladd@b+3,f
  6146     03DB                     l831:
  6147     03DB  082D               	movf	___fladd@b+3,w
  6148     03DC  042C               	iorwf	___fladd@b+2,w
  6149     03DD  042B               	iorwf	___fladd@b+1,w
  6150     03DE  042A               	iorwf	___fladd@b,w
  6151     03DF  1D03               	skipz
  6152     03E0  2BE2               	goto	u5681
  6153     03E1  2BE3               	goto	u5680
  6154     03E2                     u5681:
  6155     03E2  2C0F               	goto	l4511
  6156     03E3                     u5680:
  6157     03E3                     l4491:
  6158     03E3  083D               	movf	___fladd@grs,w
  6159     03E4  1D03               	btfss	3,2
  6160     03E5  2BE7               	goto	u5691
  6161     03E6  2BE8               	goto	u5690
  6162     03E7                     u5691:
  6163     03E7  2C0F               	goto	l4511
  6164     03E8                     u5690:
  6165     03E8                     l4493:
  6166     03E8  3000               	movlw	0
  6167     03E9  00AD               	movwf	?___fladd+3
  6168     03EA  3000               	movlw	0
  6169     03EB  00AC               	movwf	?___fladd+2
  6170     03EC  3000               	movlw	0
  6171     03ED  00AB               	movwf	?___fladd+1
  6172     03EE  3000               	movlw	0
  6173     03EF  00AA               	movwf	?___fladd
  6174     03F0  2C8B               	goto	l823
  6175     03F1                     l4497:
  6176     03F1  3001               	movlw	1
  6177     03F2  00B2               	movwf	??___fladd
  6178     03F3                     u5705:
  6179     03F3  1003               	clrc
  6180     03F4  0DAA               	rlf	___fladd@b,f
  6181     03F5  0DAB               	rlf	___fladd@b+1,f
  6182     03F6  0DAC               	rlf	___fladd@b+2,f
  6183     03F7  0DAD               	rlf	___fladd@b+3,f
  6184     03F8  0BB2               	decfsz	??___fladd,f
  6185     03F9  2BF3               	goto	u5705
  6186     03FA                     l4499:
  6187     03FA  1FBD               	btfss	___fladd@grs,7
  6188     03FB  2BFD               	goto	u5711
  6189     03FC  2BFE               	goto	u5710
  6190     03FD                     u5711:
  6191     03FD  2BFF               	goto	l835
  6192     03FE                     u5710:
  6193     03FE                     l4501:
  6194     03FE  142A               	bsf	___fladd@b,0
  6195     03FF                     l835:
  6196     03FF  1C3D               	btfss	___fladd@grs,0
  6197     0400  2C02               	goto	u5721
  6198     0401  2C03               	goto	u5720
  6199     0402                     u5721:
  6200     0402  2C06               	goto	l4505
  6201     0403                     u5720:
  6202     0403                     l4503:
  6203     0403  1403               	setc
  6204     0404  0DBD               	rlf	___fladd@grs,f
  6205     0405  2C08               	goto	l4507
  6206     0406                     l4505:
  6207     0406  1003               	clrc
  6208     0407  0DBD               	rlf	___fladd@grs,f
  6209     0408                     l4507:
  6210     0408  083C               	movf	___fladd@bexp,w
  6211     0409  1903               	btfsc	3,2
  6212     040A  2C0C               	goto	u5731
  6213     040B  2C0D               	goto	u5730
  6214     040C                     u5731:
  6215     040C  2C0F               	goto	l4511
  6216     040D                     u5730:
  6217     040D                     l4509:
  6218     040D  3001               	movlw	1
  6219     040E  02BC               	subwf	___fladd@bexp,f
  6220     040F                     l4511:
  6221     040F  1FAC               	btfss	___fladd@b+2,7
  6222     0410  2C12               	goto	u5741
  6223     0411  2C13               	goto	u5740
  6224     0412                     u5741:
  6225     0412  2BF1               	goto	l4497
  6226     0413                     u5740:
  6227     0413                     l4513:
  6228     0413  01BB               	clrf	___fladd@aexp
  6229     0414                     l4515:
  6230     0414  1FBD               	btfss	___fladd@grs,7
  6231     0415  2C17               	goto	u5751
  6232     0416  2C18               	goto	u5750
  6233     0417                     u5751:
  6234     0417  2C26               	goto	l4523
  6235     0418                     u5750:
  6236     0418                     l4517:
  6237     0418  083D               	movf	___fladd@grs,w
  6238     0419  397F               	andlw	127
  6239     041A  1903               	btfsc	3,2
  6240     041B  2C1D               	goto	u5761
  6241     041C  2C1E               	goto	u5760
  6242     041D                     u5761:
  6243     041D  2C21               	goto	l841
  6244     041E                     u5760:
  6245     041E                     l4519:
  6246     041E  01BB               	clrf	___fladd@aexp
  6247     041F  0ABB               	incf	___fladd@aexp,f
  6248     0420  2C26               	goto	l4523
  6249     0421                     l841:
  6250     0421  1C2A               	btfss	___fladd@b,0
  6251     0422  2C24               	goto	u5771
  6252     0423  2C25               	goto	u5770
  6253     0424                     u5771:
  6254     0424  2C26               	goto	l4523
  6255     0425                     u5770:
  6256     0425  2C1E               	goto	l4519
  6257     0426                     l4523:
  6258     0426  083B               	movf	___fladd@aexp,w
  6259     0427  1903               	btfsc	3,2
  6260     0428  2C2A               	goto	u5781
  6261     0429  2C2B               	goto	u5780
  6262     042A                     u5781:
  6263     042A  2C5F               	goto	l4533
  6264     042B                     u5780:
  6265     042B                     l4525:
  6266     042B  3001               	movlw	1
  6267     042C  07AA               	addwf	___fladd@b,f
  6268     042D  3000               	movlw	0
  6269     042E  1803               	skipnc
  6270     042F  3001               	movlw	1
  6271     0430  07AB               	addwf	___fladd@b+1,f
  6272     0431  3000               	movlw	0
  6273     0432  1803               	skipnc
  6274     0433  3001               	movlw	1
  6275     0434  07AC               	addwf	___fladd@b+2,f
  6276     0435  3000               	movlw	0
  6277     0436  1803               	skipnc
  6278     0437  3001               	movlw	1
  6279     0438  07AD               	addwf	___fladd@b+3,f
  6280     0439                     l4527:
  6281     0439  1C2D               	btfss	___fladd@b+3,0
  6282     043A  2C3C               	goto	u5791
  6283     043B  2C3D               	goto	u5790
  6284     043C                     u5791:
  6285     043C  2C5F               	goto	l4533
  6286     043D                     u5790:
  6287     043D                     l4529:
  6288     043D  082A               	movf	___fladd@b,w
  6289     043E  00B2               	movwf	??___fladd
  6290     043F  082B               	movf	___fladd@b+1,w
  6291     0440  00B3               	movwf	??___fladd+1
  6292     0441  082C               	movf	___fladd@b+2,w
  6293     0442  00B4               	movwf	??___fladd+2
  6294     0443  082D               	movf	___fladd@b+3,w
  6295     0444  00B5               	movwf	??___fladd+3
  6296     0445  3001               	movlw	1
  6297     0446  00B6               	movwf	??___fladd+4
  6298     0447                     u5805:
  6299     0447  0D35               	rlf	??___fladd+3,w
  6300     0448  0CB5               	rrf	??___fladd+3,f
  6301     0449  0CB4               	rrf	??___fladd+2,f
  6302     044A  0CB3               	rrf	??___fladd+1,f
  6303     044B  0CB2               	rrf	??___fladd,f
  6304     044C                     u5800:
  6305     044C  0BB6               	decfsz	??___fladd+4,f
  6306     044D  2C47               	goto	u5805
  6307     044E  0835               	movf	??___fladd+3,w
  6308     044F  00AD               	movwf	___fladd@b+3
  6309     0450  0834               	movf	??___fladd+2,w
  6310     0451  00AC               	movwf	___fladd@b+2
  6311     0452  0833               	movf	??___fladd+1,w
  6312     0453  00AB               	movwf	___fladd@b+1
  6313     0454  0832               	movf	??___fladd,w
  6314     0455  00AA               	movwf	___fladd@b
  6315     0456  0A3C               	incf	___fladd@bexp,w
  6316     0457  1903               	btfsc	3,2
  6317     0458  2C5A               	goto	u5811
  6318     0459  2C5B               	goto	u5810
  6319     045A                     u5811:
  6320     045A  2C5F               	goto	l4533
  6321     045B                     u5810:
  6322     045B                     l4531:
  6323     045B  3001               	movlw	1
  6324     045C  00FF               	movwf	btemp+1
  6325     045D  087F               	movf	btemp+1,w
  6326     045E  07BC               	addwf	___fladd@bexp,f
  6327     045F                     l4533:
  6328     045F  0A3C               	incf	___fladd@bexp,w
  6329     0460  1903               	btfsc	3,2
  6330     0461  2C63               	goto	u5821
  6331     0462  2C64               	goto	u5820
  6332     0463                     u5821:
  6333     0463  2C69               	goto	l4537
  6334     0464                     u5820:
  6335     0464                     l4535:
  6336     0464  083C               	movf	___fladd@bexp,w
  6337     0465  1D03               	btfss	3,2
  6338     0466  2C68               	goto	u5831
  6339     0467  2C69               	goto	u5830
  6340     0468                     u5831:
  6341     0468  2C77               	goto	l4543
  6342     0469                     u5830:
  6343     0469                     l4537:
  6344     0469  3000               	movlw	0
  6345     046A  00AD               	movwf	___fladd@b+3
  6346     046B  3000               	movlw	0
  6347     046C  00AC               	movwf	___fladd@b+2
  6348     046D  3000               	movlw	0
  6349     046E  00AB               	movwf	___fladd@b+1
  6350     046F  3000               	movlw	0
  6351     0470  00AA               	movwf	___fladd@b
  6352     0471                     l4539:
  6353     0471  083C               	movf	___fladd@bexp,w
  6354     0472  1D03               	btfss	3,2
  6355     0473  2C75               	goto	u5841
  6356     0474  2C76               	goto	u5840
  6357     0475                     u5841:
  6358     0475  2C77               	goto	l4543
  6359     0476                     u5840:
  6360     0476                     l4541:
  6361     0476  01BA               	clrf	___fladd@signs
  6362     0477                     l4543:
  6363     0477  1C3C               	btfss	___fladd@bexp,0
  6364     0478  2C7A               	goto	u5851
  6365     0479  2C7B               	goto	u5850
  6366     047A                     u5851:
  6367     047A  2C7D               	goto	l4547
  6368     047B                     u5850:
  6369     047B                     l4545:
  6370     047B  17AC               	bsf	___fladd@b+2,7
  6371     047C  2C81               	goto	l4549
  6372     047D                     l4547:
  6373     047D  307F               	movlw	127
  6374     047E  00FF               	movwf	btemp+1
  6375     047F  087F               	movf	btemp+1,w
  6376     0480  05AC               	andwf	___fladd@b+2,f
  6377     0481                     l4549:
  6378     0481  083C               	movf	___fladd@bexp,w
  6379     0482  00B2               	movwf	??___fladd
  6380     0483  1003               	clrc
  6381     0484  0C32               	rrf	??___fladd,w
  6382     0485  00AD               	movwf	___fladd@b+3
  6383     0486                     l4551:
  6384     0486  1FBA               	btfss	___fladd@signs,7
  6385     0487  2C89               	goto	u5861
  6386     0488  2C8A               	goto	u5860
  6387     0489                     u5861:
  6388     0489  2C8B               	goto	l853
  6389     048A                     u5860:
  6390     048A                     l4553:
  6391     048A  17AD               	bsf	___fladd@b+3,7
  6392     048B                     l853:
  6393     048B                     l823:
  6394     048B  0008               	return
  6395     048C                     __end_of___fladd:
  6396                           
  6397                           	psect	text23
  6398     048C                     __ptext23:	
  6399 ;; *************** function ___flmul *****************
  6400 ;; Defined at:
  6401 ;;		line 8 in file "C:\Program Files\Microchip\xc8\v2.45\pic\sources\c99\common\sprcmul.c"
  6402 ;; Parameters:    Size  Location     Type
  6403 ;;  b               4   10[BANK0 ] unsigned char 
  6404 ;;  a               4   14[BANK0 ] unsigned char 
  6405 ;; Auto vars:     Size  Location     Type
  6406 ;;  prod            4   30[BANK0 ] struct .
  6407 ;;  grs             4   25[BANK0 ] unsigned long 
  6408 ;;  temp            2   34[BANK0 ] struct .
  6409 ;;  bexp            1   29[BANK0 ] unsigned char 
  6410 ;;  aexp            1   24[BANK0 ] unsigned char 
  6411 ;;  sign            1   23[BANK0 ] unsigned char 
  6412 ;; Return value:  Size  Location     Type
  6413 ;;                  4   10[BANK0 ] unsigned char 
  6414 ;; Registers used:
  6415 ;;		wreg, status,2, status,0, btemp+1, pclath, cstack
  6416 ;; Tracked objects:
  6417 ;;		On entry : 0/0
  6418 ;;		On exit  : 0/0
  6419 ;;		Unchanged: 0/0
  6420 ;; Data sizes:     COMMON   BANK0   BANK1   BANK3   BANK2
  6421 ;;      Params:         0       8       0       0       0
  6422 ;;      Locals:         0      13       0       0       0
  6423 ;;      Temps:          0       5       0       0       0
  6424 ;;      Totals:         0      26       0       0       0
  6425 ;;Total ram usage:       26 bytes
  6426 ;; Hardware stack levels used: 1
  6427 ;; Hardware stack levels required when called: 1
  6428 ;; This function calls:
  6429 ;;		__Umul8_16
  6430 ;; This function is called by:
  6431 ;;		_convert_float_to_string
  6432 ;;		_main
  6433 ;; This function uses a non-reentrant model
  6434 ;;
  6435                           
  6436     048C                     ___flmul:	
  6437                           ;psect for function ___flmul
  6438                           
  6439     048C                     l4827:	
  6440                           ;incstack = 0
  6441                           ; Regs used in ___flmul: [wreg+status,2+status,0+btemp+1+pclath+cstack]
  6442                           
  6443     048C  1283               	bcf	3,5	;RP0=0, select bank0
  6444     048D  1303               	bcf	3,6	;RP1=0, select bank0
  6445     048E  082D               	movf	___flmul@b+3,w
  6446     048F  3980               	andlw	128
  6447     0490  00B7               	movwf	___flmul@sign
  6448     0491                     l4829:
  6449     0491  082D               	movf	___flmul@b+3,w
  6450     0492  00B2               	movwf	??___flmul
  6451     0493  0732               	addwf	??___flmul,w
  6452     0494  00BD               	movwf	___flmul@bexp
  6453     0495                     l4831:
  6454     0495  1FAC               	btfss	___flmul@b+2,7
  6455     0496  2C98               	goto	u6371
  6456     0497  2C99               	goto	u6370
  6457     0498                     u6371:
  6458     0498  2C9A               	goto	l4835
  6459     0499                     u6370:
  6460     0499                     l4833:
  6461     0499  143D               	bsf	___flmul@bexp,0
  6462     049A                     l4835:
  6463     049A  083D               	movf	___flmul@bexp,w
  6464     049B  1903               	btfsc	3,2
  6465     049C  2C9E               	goto	u6381
  6466     049D  2C9F               	goto	u6380
  6467     049E                     u6381:
  6468     049E  2CAE               	goto	l4843
  6469     049F                     u6380:
  6470     049F                     l4837:
  6471     049F  0A3D               	incf	___flmul@bexp,w
  6472     04A0  1D03               	btfss	3,2
  6473     04A1  2CA3               	goto	u6391
  6474     04A2  2CA4               	goto	u6390
  6475     04A3                     u6391:
  6476     04A3  2CAC               	goto	l4841
  6477     04A4                     u6390:
  6478     04A4                     l4839:
  6479     04A4  3000               	movlw	0
  6480     04A5  00AD               	movwf	___flmul@b+3
  6481     04A6  3000               	movlw	0
  6482     04A7  00AC               	movwf	___flmul@b+2
  6483     04A8  3000               	movlw	0
  6484     04A9  00AB               	movwf	___flmul@b+1
  6485     04AA  3000               	movlw	0
  6486     04AB  00AA               	movwf	___flmul@b
  6487     04AC                     l4841:
  6488     04AC  17AC               	bsf	___flmul@b+2,7
  6489     04AD  2CB6               	goto	l4845
  6490     04AE                     l4843:
  6491     04AE  3000               	movlw	0
  6492     04AF  00AD               	movwf	___flmul@b+3
  6493     04B0  3000               	movlw	0
  6494     04B1  00AC               	movwf	___flmul@b+2
  6495     04B2  3000               	movlw	0
  6496     04B3  00AB               	movwf	___flmul@b+1
  6497     04B4  3000               	movlw	0
  6498     04B5  00AA               	movwf	___flmul@b
  6499     04B6                     l4845:
  6500     04B6  0831               	movf	___flmul@a+3,w
  6501     04B7  3980               	andlw	128
  6502     04B8  00FF               	movwf	btemp+1
  6503     04B9  087F               	movf	btemp+1,w
  6504     04BA  06B7               	xorwf	___flmul@sign,f
  6505     04BB                     l4847:
  6506     04BB  0831               	movf	___flmul@a+3,w
  6507     04BC  00B2               	movwf	??___flmul
  6508     04BD  0732               	addwf	??___flmul,w
  6509     04BE  00B8               	movwf	___flmul@aexp
  6510     04BF                     l4849:
  6511     04BF  1FB0               	btfss	___flmul@a+2,7
  6512     04C0  2CC2               	goto	u6401
  6513     04C1  2CC3               	goto	u6400
  6514     04C2                     u6401:
  6515     04C2  2CC4               	goto	l4853
  6516     04C3                     u6400:
  6517     04C3                     l4851:
  6518     04C3  1438               	bsf	___flmul@aexp,0
  6519     04C4                     l4853:
  6520     04C4  0838               	movf	___flmul@aexp,w
  6521     04C5  1903               	btfsc	3,2
  6522     04C6  2CC8               	goto	u6411
  6523     04C7  2CC9               	goto	u6410
  6524     04C8                     u6411:
  6525     04C8  2CD8               	goto	l4861
  6526     04C9                     u6410:
  6527     04C9                     l4855:
  6528     04C9  0A38               	incf	___flmul@aexp,w
  6529     04CA  1D03               	btfss	3,2
  6530     04CB  2CCD               	goto	u6421
  6531     04CC  2CCE               	goto	u6420
  6532     04CD                     u6421:
  6533     04CD  2CD6               	goto	l4859
  6534     04CE                     u6420:
  6535     04CE                     l4857:
  6536     04CE  3000               	movlw	0
  6537     04CF  00B1               	movwf	___flmul@a+3
  6538     04D0  3000               	movlw	0
  6539     04D1  00B0               	movwf	___flmul@a+2
  6540     04D2  3000               	movlw	0
  6541     04D3  00AF               	movwf	___flmul@a+1
  6542     04D4  3000               	movlw	0
  6543     04D5  00AE               	movwf	___flmul@a
  6544     04D6                     l4859:
  6545     04D6  17B0               	bsf	___flmul@a+2,7
  6546     04D7  2CE0               	goto	l4863
  6547     04D8                     l4861:
  6548     04D8  3000               	movlw	0
  6549     04D9  00B1               	movwf	___flmul@a+3
  6550     04DA  3000               	movlw	0
  6551     04DB  00B0               	movwf	___flmul@a+2
  6552     04DC  3000               	movlw	0
  6553     04DD  00AF               	movwf	___flmul@a+1
  6554     04DE  3000               	movlw	0
  6555     04DF  00AE               	movwf	___flmul@a
  6556     04E0                     l4863:
  6557     04E0  0838               	movf	___flmul@aexp,w
  6558     04E1  1903               	btfsc	3,2
  6559     04E2  2CE4               	goto	u6431
  6560     04E3  2CE5               	goto	u6430
  6561     04E4                     u6431:
  6562     04E4  2CEA               	goto	l4867
  6563     04E5                     u6430:
  6564     04E5                     l4865:
  6565     04E5  083D               	movf	___flmul@bexp,w
  6566     04E6  1D03               	btfss	3,2
  6567     04E7  2CE9               	goto	u6441
  6568     04E8  2CEA               	goto	u6440
  6569     04E9                     u6441:
  6570     04E9  2CF3               	goto	l4871
  6571     04EA                     u6440:
  6572     04EA                     l4867:
  6573     04EA  3000               	movlw	0
  6574     04EB  00AD               	movwf	?___flmul+3
  6575     04EC  3000               	movlw	0
  6576     04ED  00AC               	movwf	?___flmul+2
  6577     04EE  3000               	movlw	0
  6578     04EF  00AB               	movwf	?___flmul+1
  6579     04F0  3000               	movlw	0
  6580     04F1  00AA               	movwf	?___flmul
  6581     04F2  2FD0               	goto	l906
  6582     04F3                     l4871:
  6583     04F3  082A               	movf	___flmul@b,w
  6584     04F4  00F0               	movwf	__Umul8_16@multiplicand
  6585     04F5  0830               	movf	___flmul@a+2,w
  6586     04F6  160A  118A  2544  120A  118A  	fcall	__Umul8_16
  6587     04FB  0871               	movf	?__Umul8_16+1,w
  6588     04FC  1283               	bcf	3,5	;RP0=0, select bank0
  6589     04FD  1303               	bcf	3,6	;RP1=0, select bank0
  6590     04FE  00C3               	movwf	___flmul@temp+1
  6591     04FF  0870               	movf	?__Umul8_16,w
  6592     0500  00C2               	movwf	___flmul@temp
  6593     0501                     l4873:
  6594     0501  0842               	movf	___flmul@temp,w
  6595     0502  00B2               	movwf	??___flmul
  6596     0503  01B3               	clrf	??___flmul+1
  6597     0504  01B4               	clrf	??___flmul+2
  6598     0505  01B5               	clrf	??___flmul+3
  6599     0506  0835               	movf	??___flmul+3,w
  6600     0507  00BC               	movwf	___flmul@grs+3
  6601     0508  0834               	movf	??___flmul+2,w
  6602     0509  00BB               	movwf	___flmul@grs+2
  6603     050A  0833               	movf	??___flmul+1,w
  6604     050B  00BA               	movwf	___flmul@grs+1
  6605     050C  0832               	movf	??___flmul,w
  6606     050D  00B9               	movwf	___flmul@grs
  6607     050E                     l4875:
  6608     050E  0843               	movf	___flmul@temp+1,w
  6609     050F  00B2               	movwf	??___flmul
  6610     0510  01B3               	clrf	??___flmul+1
  6611     0511  01B4               	clrf	??___flmul+2
  6612     0512  01B5               	clrf	??___flmul+3
  6613     0513  0835               	movf	??___flmul+3,w
  6614     0514  00C1               	movwf	___flmul@prod+3
  6615     0515  0834               	movf	??___flmul+2,w
  6616     0516  00C0               	movwf	___flmul@prod+2
  6617     0517  0833               	movf	??___flmul+1,w
  6618     0518  00BF               	movwf	___flmul@prod+1
  6619     0519  0832               	movf	??___flmul,w
  6620     051A  00BE               	movwf	___flmul@prod
  6621     051B  082B               	movf	___flmul@b+1,w
  6622     051C  00F0               	movwf	__Umul8_16@multiplicand
  6623     051D  082F               	movf	___flmul@a+1,w
  6624     051E  160A  118A  2544  120A  118A  	fcall	__Umul8_16
  6625     0523  0871               	movf	?__Umul8_16+1,w
  6626     0524  1283               	bcf	3,5	;RP0=0, select bank0
  6627     0525  1303               	bcf	3,6	;RP1=0, select bank0
  6628     0526  00C3               	movwf	___flmul@temp+1
  6629     0527  0870               	movf	?__Umul8_16,w
  6630     0528  00C2               	movwf	___flmul@temp
  6631     0529                     l4877:
  6632     0529  0842               	movf	___flmul@temp,w
  6633     052A  00B2               	movwf	??___flmul
  6634     052B  01B3               	clrf	??___flmul+1
  6635     052C  01B4               	clrf	??___flmul+2
  6636     052D  01B5               	clrf	??___flmul+3
  6637     052E  0832               	movf	??___flmul,w
  6638     052F  07B9               	addwf	___flmul@grs,f
  6639     0530  0833               	movf	??___flmul+1,w
  6640     0531  1103               	clrz
  6641     0532  1803               	skipnc
  6642     0533  3E01               	addlw	1
  6643     0534  1903               	skipnz
  6644     0535  2D37               	goto	u6451
  6645     0536  07BA               	addwf	___flmul@grs+1,f
  6646     0537                     u6451:
  6647     0537  0834               	movf	??___flmul+2,w
  6648     0538  1103               	clrz
  6649     0539  1803               	skipnc
  6650     053A  3E01               	addlw	1
  6651     053B  1903               	skipnz
  6652     053C  2D3E               	goto	u6452
  6653     053D  07BB               	addwf	___flmul@grs+2,f
  6654     053E                     u6452:
  6655     053E  0835               	movf	??___flmul+3,w
  6656     053F  1103               	clrz
  6657     0540  1803               	skipnc
  6658     0541  3E01               	addlw	1
  6659     0542  1903               	skipnz
  6660     0543  2D45               	goto	u6453
  6661     0544  07BC               	addwf	___flmul@grs+3,f
  6662     0545                     u6453:
  6663     0545                     l4879:
  6664     0545  0843               	movf	___flmul@temp+1,w
  6665     0546  00B2               	movwf	??___flmul
  6666     0547  01B3               	clrf	??___flmul+1
  6667     0548  01B4               	clrf	??___flmul+2
  6668     0549  01B5               	clrf	??___flmul+3
  6669     054A  0832               	movf	??___flmul,w
  6670     054B  07BE               	addwf	___flmul@prod,f
  6671     054C  0833               	movf	??___flmul+1,w
  6672     054D  1103               	clrz
  6673     054E  1803               	skipnc
  6674     054F  3E01               	addlw	1
  6675     0550  1903               	skipnz
  6676     0551  2D53               	goto	u6461
  6677     0552  07BF               	addwf	___flmul@prod+1,f
  6678     0553                     u6461:
  6679     0553  0834               	movf	??___flmul+2,w
  6680     0554  1103               	clrz
  6681     0555  1803               	skipnc
  6682     0556  3E01               	addlw	1
  6683     0557  1903               	skipnz
  6684     0558  2D5A               	goto	u6462
  6685     0559  07C0               	addwf	___flmul@prod+2,f
  6686     055A                     u6462:
  6687     055A  0835               	movf	??___flmul+3,w
  6688     055B  1103               	clrz
  6689     055C  1803               	skipnc
  6690     055D  3E01               	addlw	1
  6691     055E  1903               	skipnz
  6692     055F  2D61               	goto	u6463
  6693     0560  07C1               	addwf	___flmul@prod+3,f
  6694     0561                     u6463:
  6695     0561  082C               	movf	___flmul@b+2,w
  6696     0562  00F0               	movwf	__Umul8_16@multiplicand
  6697     0563  082E               	movf	___flmul@a,w
  6698     0564  160A  118A  2544  120A  118A  	fcall	__Umul8_16
  6699     0569  0871               	movf	?__Umul8_16+1,w
  6700     056A  1283               	bcf	3,5	;RP0=0, select bank0
  6701     056B  1303               	bcf	3,6	;RP1=0, select bank0
  6702     056C  00C3               	movwf	___flmul@temp+1
  6703     056D  0870               	movf	?__Umul8_16,w
  6704     056E  00C2               	movwf	___flmul@temp
  6705     056F                     l4881:
  6706     056F  0842               	movf	___flmul@temp,w
  6707     0570  00B2               	movwf	??___flmul
  6708     0571  01B3               	clrf	??___flmul+1
  6709     0572  01B4               	clrf	??___flmul+2
  6710     0573  01B5               	clrf	??___flmul+3
  6711     0574  0832               	movf	??___flmul,w
  6712     0575  07B9               	addwf	___flmul@grs,f
  6713     0576  0833               	movf	??___flmul+1,w
  6714     0577  1103               	clrz
  6715     0578  1803               	skipnc
  6716     0579  3E01               	addlw	1
  6717     057A  1903               	skipnz
  6718     057B  2D7D               	goto	u6471
  6719     057C  07BA               	addwf	___flmul@grs+1,f
  6720     057D                     u6471:
  6721     057D  0834               	movf	??___flmul+2,w
  6722     057E  1103               	clrz
  6723     057F  1803               	skipnc
  6724     0580  3E01               	addlw	1
  6725     0581  1903               	skipnz
  6726     0582  2D84               	goto	u6472
  6727     0583  07BB               	addwf	___flmul@grs+2,f
  6728     0584                     u6472:
  6729     0584  0835               	movf	??___flmul+3,w
  6730     0585  1103               	clrz
  6731     0586  1803               	skipnc
  6732     0587  3E01               	addlw	1
  6733     0588  1903               	skipnz
  6734     0589  2D8B               	goto	u6473
  6735     058A  07BC               	addwf	___flmul@grs+3,f
  6736     058B                     u6473:
  6737     058B                     l4883:
  6738     058B  0843               	movf	___flmul@temp+1,w
  6739     058C  00B2               	movwf	??___flmul
  6740     058D  01B3               	clrf	??___flmul+1
  6741     058E  01B4               	clrf	??___flmul+2
  6742     058F  01B5               	clrf	??___flmul+3
  6743     0590  0832               	movf	??___flmul,w
  6744     0591  07BE               	addwf	___flmul@prod,f
  6745     0592  0833               	movf	??___flmul+1,w
  6746     0593  1103               	clrz
  6747     0594  1803               	skipnc
  6748     0595  3E01               	addlw	1
  6749     0596  1903               	skipnz
  6750     0597  2D99               	goto	u6481
  6751     0598  07BF               	addwf	___flmul@prod+1,f
  6752     0599                     u6481:
  6753     0599  0834               	movf	??___flmul+2,w
  6754     059A  1103               	clrz
  6755     059B  1803               	skipnc
  6756     059C  3E01               	addlw	1
  6757     059D  1903               	skipnz
  6758     059E  2DA0               	goto	u6482
  6759     059F  07C0               	addwf	___flmul@prod+2,f
  6760     05A0                     u6482:
  6761     05A0  0835               	movf	??___flmul+3,w
  6762     05A1  1103               	clrz
  6763     05A2  1803               	skipnc
  6764     05A3  3E01               	addlw	1
  6765     05A4  1903               	skipnz
  6766     05A5  2DA7               	goto	u6483
  6767     05A6  07C1               	addwf	___flmul@prod+3,f
  6768     05A7                     u6483:
  6769     05A7                     l4885:
  6770     05A7  3008               	movlw	8
  6771     05A8  00B2               	movwf	??___flmul
  6772     05A9                     u6495:
  6773     05A9  1003               	clrc
  6774     05AA  0DB9               	rlf	___flmul@grs,f
  6775     05AB  0DBA               	rlf	___flmul@grs+1,f
  6776     05AC  0DBB               	rlf	___flmul@grs+2,f
  6777     05AD  0DBC               	rlf	___flmul@grs+3,f
  6778     05AE  0BB2               	decfsz	??___flmul,f
  6779     05AF  2DA9               	goto	u6495
  6780     05B0                     l4887:
  6781     05B0  082B               	movf	___flmul@b+1,w
  6782     05B1  00F0               	movwf	__Umul8_16@multiplicand
  6783     05B2  082E               	movf	___flmul@a,w
  6784     05B3  160A  118A  2544  120A  118A  	fcall	__Umul8_16
  6785     05B8  0871               	movf	?__Umul8_16+1,w
  6786     05B9  1283               	bcf	3,5	;RP0=0, select bank0
  6787     05BA  1303               	bcf	3,6	;RP1=0, select bank0
  6788     05BB  00C3               	movwf	___flmul@temp+1
  6789     05BC  0870               	movf	?__Umul8_16,w
  6790     05BD  00C2               	movwf	___flmul@temp
  6791     05BE                     l4889:
  6792     05BE  0842               	movf	___flmul@temp,w
  6793     05BF  00B2               	movwf	??___flmul
  6794     05C0  0843               	movf	___flmul@temp+1,w
  6795     05C1  00B3               	movwf	??___flmul+1
  6796     05C2  01B4               	clrf	??___flmul+2
  6797     05C3  01B5               	clrf	??___flmul+3
  6798     05C4  0832               	movf	??___flmul,w
  6799     05C5  07B9               	addwf	___flmul@grs,f
  6800     05C6  0833               	movf	??___flmul+1,w
  6801     05C7  1103               	clrz
  6802     05C8  1803               	skipnc
  6803     05C9  3E01               	addlw	1
  6804     05CA  1903               	skipnz
  6805     05CB  2DCD               	goto	u6501
  6806     05CC  07BA               	addwf	___flmul@grs+1,f
  6807     05CD                     u6501:
  6808     05CD  0834               	movf	??___flmul+2,w
  6809     05CE  1103               	clrz
  6810     05CF  1803               	skipnc
  6811     05D0  3E01               	addlw	1
  6812     05D1  1903               	skipnz
  6813     05D2  2DD4               	goto	u6502
  6814     05D3  07BB               	addwf	___flmul@grs+2,f
  6815     05D4                     u6502:
  6816     05D4  0835               	movf	??___flmul+3,w
  6817     05D5  1103               	clrz
  6818     05D6  1803               	skipnc
  6819     05D7  3E01               	addlw	1
  6820     05D8  1903               	skipnz
  6821     05D9  2DDB               	goto	u6503
  6822     05DA  07BC               	addwf	___flmul@grs+3,f
  6823     05DB                     u6503:
  6824     05DB                     l4891:
  6825     05DB  082A               	movf	___flmul@b,w
  6826     05DC  00F0               	movwf	__Umul8_16@multiplicand
  6827     05DD  082F               	movf	___flmul@a+1,w
  6828     05DE  160A  118A  2544  120A  118A  	fcall	__Umul8_16
  6829     05E3  0871               	movf	?__Umul8_16+1,w
  6830     05E4  1283               	bcf	3,5	;RP0=0, select bank0
  6831     05E5  1303               	bcf	3,6	;RP1=0, select bank0
  6832     05E6  00C3               	movwf	___flmul@temp+1
  6833     05E7  0870               	movf	?__Umul8_16,w
  6834     05E8  00C2               	movwf	___flmul@temp
  6835     05E9                     l4893:
  6836     05E9  0842               	movf	___flmul@temp,w
  6837     05EA  00B2               	movwf	??___flmul
  6838     05EB  0843               	movf	___flmul@temp+1,w
  6839     05EC  00B3               	movwf	??___flmul+1
  6840     05ED  01B4               	clrf	??___flmul+2
  6841     05EE  01B5               	clrf	??___flmul+3
  6842     05EF  0832               	movf	??___flmul,w
  6843     05F0  07B9               	addwf	___flmul@grs,f
  6844     05F1  0833               	movf	??___flmul+1,w
  6845     05F2  1103               	clrz
  6846     05F3  1803               	skipnc
  6847     05F4  3E01               	addlw	1
  6848     05F5  1903               	skipnz
  6849     05F6  2DF8               	goto	u6511
  6850     05F7  07BA               	addwf	___flmul@grs+1,f
  6851     05F8                     u6511:
  6852     05F8  0834               	movf	??___flmul+2,w
  6853     05F9  1103               	clrz
  6854     05FA  1803               	skipnc
  6855     05FB  3E01               	addlw	1
  6856     05FC  1903               	skipnz
  6857     05FD  2DFF               	goto	u6512
  6858     05FE  07BB               	addwf	___flmul@grs+2,f
  6859     05FF                     u6512:
  6860     05FF  0835               	movf	??___flmul+3,w
  6861     0600  1103               	clrz
  6862     0601  1803               	skipnc
  6863     0602  3E01               	addlw	1
  6864     0603  1903               	skipnz
  6865     0604  2E06               	goto	u6513
  6866     0605  07BC               	addwf	___flmul@grs+3,f
  6867     0606                     u6513:
  6868     0606                     l4895:
  6869     0606  3008               	movlw	8
  6870     0607  00B2               	movwf	??___flmul
  6871     0608                     u6525:
  6872     0608  1003               	clrc
  6873     0609  0DB9               	rlf	___flmul@grs,f
  6874     060A  0DBA               	rlf	___flmul@grs+1,f
  6875     060B  0DBB               	rlf	___flmul@grs+2,f
  6876     060C  0DBC               	rlf	___flmul@grs+3,f
  6877     060D  0BB2               	decfsz	??___flmul,f
  6878     060E  2E08               	goto	u6525
  6879     060F  082A               	movf	___flmul@b,w
  6880     0610  00F0               	movwf	__Umul8_16@multiplicand
  6881     0611  082E               	movf	___flmul@a,w
  6882     0612  160A  118A  2544  120A  118A  	fcall	__Umul8_16
  6883     0617  0871               	movf	?__Umul8_16+1,w
  6884     0618  1283               	bcf	3,5	;RP0=0, select bank0
  6885     0619  1303               	bcf	3,6	;RP1=0, select bank0
  6886     061A  00C3               	movwf	___flmul@temp+1
  6887     061B  0870               	movf	?__Umul8_16,w
  6888     061C  00C2               	movwf	___flmul@temp
  6889     061D                     l4897:
  6890     061D  0842               	movf	___flmul@temp,w
  6891     061E  00B2               	movwf	??___flmul
  6892     061F  0843               	movf	___flmul@temp+1,w
  6893     0620  00B3               	movwf	??___flmul+1
  6894     0621  01B4               	clrf	??___flmul+2
  6895     0622  01B5               	clrf	??___flmul+3
  6896     0623  0832               	movf	??___flmul,w
  6897     0624  07B9               	addwf	___flmul@grs,f
  6898     0625  0833               	movf	??___flmul+1,w
  6899     0626  1103               	clrz
  6900     0627  1803               	skipnc
  6901     0628  3E01               	addlw	1
  6902     0629  1903               	skipnz
  6903     062A  2E2C               	goto	u6531
  6904     062B  07BA               	addwf	___flmul@grs+1,f
  6905     062C                     u6531:
  6906     062C  0834               	movf	??___flmul+2,w
  6907     062D  1103               	clrz
  6908     062E  1803               	skipnc
  6909     062F  3E01               	addlw	1
  6910     0630  1903               	skipnz
  6911     0631  2E33               	goto	u6532
  6912     0632  07BB               	addwf	___flmul@grs+2,f
  6913     0633                     u6532:
  6914     0633  0835               	movf	??___flmul+3,w
  6915     0634  1103               	clrz
  6916     0635  1803               	skipnc
  6917     0636  3E01               	addlw	1
  6918     0637  1903               	skipnz
  6919     0638  2E3A               	goto	u6533
  6920     0639  07BC               	addwf	___flmul@grs+3,f
  6921     063A                     u6533:
  6922     063A                     l4899:
  6923     063A  082B               	movf	___flmul@b+1,w
  6924     063B  00F0               	movwf	__Umul8_16@multiplicand
  6925     063C  0830               	movf	___flmul@a+2,w
  6926     063D  160A  118A  2544  120A  118A  	fcall	__Umul8_16
  6927     0642  0871               	movf	?__Umul8_16+1,w
  6928     0643  1283               	bcf	3,5	;RP0=0, select bank0
  6929     0644  1303               	bcf	3,6	;RP1=0, select bank0
  6930     0645  00C3               	movwf	___flmul@temp+1
  6931     0646  0870               	movf	?__Umul8_16,w
  6932     0647  00C2               	movwf	___flmul@temp
  6933     0648  0842               	movf	___flmul@temp,w
  6934     0649  00B2               	movwf	??___flmul
  6935     064A  0843               	movf	___flmul@temp+1,w
  6936     064B  00B3               	movwf	??___flmul+1
  6937     064C  01B4               	clrf	??___flmul+2
  6938     064D  01B5               	clrf	??___flmul+3
  6939     064E  0832               	movf	??___flmul,w
  6940     064F  07BE               	addwf	___flmul@prod,f
  6941     0650  0833               	movf	??___flmul+1,w
  6942     0651  1103               	clrz
  6943     0652  1803               	skipnc
  6944     0653  3E01               	addlw	1
  6945     0654  1903               	skipnz
  6946     0655  2E57               	goto	u6541
  6947     0656  07BF               	addwf	___flmul@prod+1,f
  6948     0657                     u6541:
  6949     0657  0834               	movf	??___flmul+2,w
  6950     0658  1103               	clrz
  6951     0659  1803               	skipnc
  6952     065A  3E01               	addlw	1
  6953     065B  1903               	skipnz
  6954     065C  2E5E               	goto	u6542
  6955     065D  07C0               	addwf	___flmul@prod+2,f
  6956     065E                     u6542:
  6957     065E  0835               	movf	??___flmul+3,w
  6958     065F  1103               	clrz
  6959     0660  1803               	skipnc
  6960     0661  3E01               	addlw	1
  6961     0662  1903               	skipnz
  6962     0663  2E65               	goto	u6543
  6963     0664  07C1               	addwf	___flmul@prod+3,f
  6964     0665                     u6543:
  6965     0665                     l4901:
  6966     0665  082C               	movf	___flmul@b+2,w
  6967     0666  00F0               	movwf	__Umul8_16@multiplicand
  6968     0667  082F               	movf	___flmul@a+1,w
  6969     0668  160A  118A  2544  120A  118A  	fcall	__Umul8_16
  6970     066D  0871               	movf	?__Umul8_16+1,w
  6971     066E  1283               	bcf	3,5	;RP0=0, select bank0
  6972     066F  1303               	bcf	3,6	;RP1=0, select bank0
  6973     0670  00C3               	movwf	___flmul@temp+1
  6974     0671  0870               	movf	?__Umul8_16,w
  6975     0672  00C2               	movwf	___flmul@temp
  6976     0673                     l4903:
  6977     0673  0842               	movf	___flmul@temp,w
  6978     0674  00B2               	movwf	??___flmul
  6979     0675  0843               	movf	___flmul@temp+1,w
  6980     0676  00B3               	movwf	??___flmul+1
  6981     0677  01B4               	clrf	??___flmul+2
  6982     0678  01B5               	clrf	??___flmul+3
  6983     0679  0832               	movf	??___flmul,w
  6984     067A  07BE               	addwf	___flmul@prod,f
  6985     067B  0833               	movf	??___flmul+1,w
  6986     067C  1103               	clrz
  6987     067D  1803               	skipnc
  6988     067E  3E01               	addlw	1
  6989     067F  1903               	skipnz
  6990     0680  2E82               	goto	u6551
  6991     0681  07BF               	addwf	___flmul@prod+1,f
  6992     0682                     u6551:
  6993     0682  0834               	movf	??___flmul+2,w
  6994     0683  1103               	clrz
  6995     0684  1803               	skipnc
  6996     0685  3E01               	addlw	1
  6997     0686  1903               	skipnz
  6998     0687  2E89               	goto	u6552
  6999     0688  07C0               	addwf	___flmul@prod+2,f
  7000     0689                     u6552:
  7001     0689  0835               	movf	??___flmul+3,w
  7002     068A  1103               	clrz
  7003     068B  1803               	skipnc
  7004     068C  3E01               	addlw	1
  7005     068D  1903               	skipnz
  7006     068E  2E90               	goto	u6553
  7007     068F  07C1               	addwf	___flmul@prod+3,f
  7008     0690                     u6553:
  7009     0690  082C               	movf	___flmul@b+2,w
  7010     0691  00F0               	movwf	__Umul8_16@multiplicand
  7011     0692  0830               	movf	___flmul@a+2,w
  7012     0693  160A  118A  2544  120A  118A  	fcall	__Umul8_16
  7013     0698  0871               	movf	?__Umul8_16+1,w
  7014     0699  1283               	bcf	3,5	;RP0=0, select bank0
  7015     069A  1303               	bcf	3,6	;RP1=0, select bank0
  7016     069B  00C3               	movwf	___flmul@temp+1
  7017     069C  0870               	movf	?__Umul8_16,w
  7018     069D  00C2               	movwf	___flmul@temp
  7019     069E                     l4905:
  7020     069E  0842               	movf	___flmul@temp,w
  7021     069F  00B2               	movwf	??___flmul
  7022     06A0  0843               	movf	___flmul@temp+1,w
  7023     06A1  00B3               	movwf	??___flmul+1
  7024     06A2  01B4               	clrf	??___flmul+2
  7025     06A3  01B5               	clrf	??___flmul+3
  7026     06A4  3008               	movlw	8
  7027     06A5                     u6565:
  7028     06A5  1003               	clrc
  7029     06A6  0DB2               	rlf	??___flmul,f
  7030     06A7  0DB3               	rlf	??___flmul+1,f
  7031     06A8  0DB4               	rlf	??___flmul+2,f
  7032     06A9  0DB5               	rlf	??___flmul+3,f
  7033     06AA                     u6560:
  7034     06AA  3EFF               	addlw	-1
  7035     06AB  1D03               	skipz
  7036     06AC  2EA5               	goto	u6565
  7037     06AD  0832               	movf	??___flmul,w
  7038     06AE  07BE               	addwf	___flmul@prod,f
  7039     06AF  0833               	movf	??___flmul+1,w
  7040     06B0  1103               	clrz
  7041     06B1  1803               	skipnc
  7042     06B2  3E01               	addlw	1
  7043     06B3  1903               	skipnz
  7044     06B4  2EB6               	goto	u6571
  7045     06B5  07BF               	addwf	___flmul@prod+1,f
  7046     06B6                     u6571:
  7047     06B6  0834               	movf	??___flmul+2,w
  7048     06B7  1103               	clrz
  7049     06B8  1803               	skipnc
  7050     06B9  3E01               	addlw	1
  7051     06BA  1903               	skipnz
  7052     06BB  2EBD               	goto	u6572
  7053     06BC  07C0               	addwf	___flmul@prod+2,f
  7054     06BD                     u6572:
  7055     06BD  0835               	movf	??___flmul+3,w
  7056     06BE  1103               	clrz
  7057     06BF  1803               	skipnc
  7058     06C0  3E01               	addlw	1
  7059     06C1  1903               	skipnz
  7060     06C2  2EC4               	goto	u6573
  7061     06C3  07C1               	addwf	___flmul@prod+3,f
  7062     06C4                     u6573:
  7063     06C4                     l4907:
  7064     06C4  0839               	movf	___flmul@grs,w
  7065     06C5  00B2               	movwf	??___flmul
  7066     06C6  083A               	movf	___flmul@grs+1,w
  7067     06C7  00B3               	movwf	??___flmul+1
  7068     06C8  083B               	movf	___flmul@grs+2,w
  7069     06C9  00B4               	movwf	??___flmul+2
  7070     06CA  083C               	movf	___flmul@grs+3,w
  7071     06CB  00B5               	movwf	??___flmul+3
  7072     06CC  3018               	movlw	24
  7073     06CD                     u6585:
  7074     06CD  1003               	clrc
  7075     06CE  0CB5               	rrf	??___flmul+3,f
  7076     06CF  0CB4               	rrf	??___flmul+2,f
  7077     06D0  0CB3               	rrf	??___flmul+1,f
  7078     06D1  0CB2               	rrf	??___flmul,f
  7079     06D2                     u6580:
  7080     06D2  3EFF               	addlw	-1
  7081     06D3  1D03               	skipz
  7082     06D4  2ECD               	goto	u6585
  7083     06D5  0832               	movf	??___flmul,w
  7084     06D6  07BE               	addwf	___flmul@prod,f
  7085     06D7  0833               	movf	??___flmul+1,w
  7086     06D8  1103               	clrz
  7087     06D9  1803               	skipnc
  7088     06DA  3E01               	addlw	1
  7089     06DB  1903               	skipnz
  7090     06DC  2EDE               	goto	u6591
  7091     06DD  07BF               	addwf	___flmul@prod+1,f
  7092     06DE                     u6591:
  7093     06DE  0834               	movf	??___flmul+2,w
  7094     06DF  1103               	clrz
  7095     06E0  1803               	skipnc
  7096     06E1  3E01               	addlw	1
  7097     06E2  1903               	skipnz
  7098     06E3  2EE5               	goto	u6592
  7099     06E4  07C0               	addwf	___flmul@prod+2,f
  7100     06E5                     u6592:
  7101     06E5  0835               	movf	??___flmul+3,w
  7102     06E6  1103               	clrz
  7103     06E7  1803               	skipnc
  7104     06E8  3E01               	addlw	1
  7105     06E9  1903               	skipnz
  7106     06EA  2EEC               	goto	u6593
  7107     06EB  07C1               	addwf	___flmul@prod+3,f
  7108     06EC                     u6593:
  7109     06EC                     l4909:
  7110     06EC  3008               	movlw	8
  7111     06ED  00B2               	movwf	??___flmul
  7112     06EE                     u6605:
  7113     06EE  1003               	clrc
  7114     06EF  0DB9               	rlf	___flmul@grs,f
  7115     06F0  0DBA               	rlf	___flmul@grs+1,f
  7116     06F1  0DBB               	rlf	___flmul@grs+2,f
  7117     06F2  0DBC               	rlf	___flmul@grs+3,f
  7118     06F3  0BB2               	decfsz	??___flmul,f
  7119     06F4  2EEE               	goto	u6605
  7120     06F5                     l4911:
  7121     06F5  083D               	movf	___flmul@bexp,w
  7122     06F6  0738               	addwf	___flmul@aexp,w
  7123     06F7  00B2               	movwf	??___flmul
  7124     06F8  01B3               	clrf	??___flmul+1
  7125     06F9  0DB3               	rlf	??___flmul+1,f
  7126     06FA  0832               	movf	??___flmul,w
  7127     06FB  3E82               	addlw	130
  7128     06FC  00C2               	movwf	___flmul@temp
  7129     06FD  0833               	movf	??___flmul+1,w
  7130     06FE  1803               	skipnc
  7131     06FF  3E01               	addlw	1
  7132     0700  3EFF               	addlw	255
  7133     0701  00C3               	movwf	___flmul@temp+1
  7134     0702  2F20               	goto	l4923
  7135     0703                     l4913:
  7136     0703  3001               	movlw	1
  7137     0704  00B2               	movwf	??___flmul
  7138     0705                     u6615:
  7139     0705  1003               	clrc
  7140     0706  0DBE               	rlf	___flmul@prod,f
  7141     0707  0DBF               	rlf	___flmul@prod+1,f
  7142     0708  0DC0               	rlf	___flmul@prod+2,f
  7143     0709  0DC1               	rlf	___flmul@prod+3,f
  7144     070A  0BB2               	decfsz	??___flmul,f
  7145     070B  2F05               	goto	u6615
  7146     070C                     l4915:
  7147     070C  1FBC               	btfss	___flmul@grs+3,7
  7148     070D  2F0F               	goto	u6621
  7149     070E  2F10               	goto	u6620
  7150     070F                     u6621:
  7151     070F  2F11               	goto	l4919
  7152     0710                     u6620:
  7153     0710                     l4917:
  7154     0710  143E               	bsf	___flmul@prod,0
  7155     0711                     l4919:
  7156     0711  3001               	movlw	1
  7157     0712  00B2               	movwf	??___flmul
  7158     0713                     u6635:
  7159     0713  1003               	clrc
  7160     0714  0DB9               	rlf	___flmul@grs,f
  7161     0715  0DBA               	rlf	___flmul@grs+1,f
  7162     0716  0DBB               	rlf	___flmul@grs+2,f
  7163     0717  0DBC               	rlf	___flmul@grs+3,f
  7164     0718  0BB2               	decfsz	??___flmul,f
  7165     0719  2F13               	goto	u6635
  7166     071A                     l4921:
  7167     071A  30FF               	movlw	255
  7168     071B  07C2               	addwf	___flmul@temp,f
  7169     071C  1803               	skipnc
  7170     071D  0AC3               	incf	___flmul@temp+1,f
  7171     071E  30FF               	movlw	255
  7172     071F  07C3               	addwf	___flmul@temp+1,f
  7173     0720                     l4923:
  7174     0720  1FC0               	btfss	___flmul@prod+2,7
  7175     0721  2F23               	goto	u6641
  7176     0722  2F24               	goto	u6640
  7177     0723                     u6641:
  7178     0723  2F03               	goto	l4913
  7179     0724                     u6640:
  7180     0724                     l4925:
  7181     0724  01B8               	clrf	___flmul@aexp
  7182     0725                     l4927:
  7183     0725  1FBC               	btfss	___flmul@grs+3,7
  7184     0726  2F28               	goto	u6651
  7185     0727  2F29               	goto	u6650
  7186     0728                     u6651:
  7187     0728  2F45               	goto	l4935
  7188     0729                     u6650:
  7189     0729                     l4929:
  7190     0729  30FF               	movlw	255
  7191     072A  0539               	andwf	___flmul@grs,w
  7192     072B  00B2               	movwf	??___flmul
  7193     072C  30FF               	movlw	255
  7194     072D  053A               	andwf	___flmul@grs+1,w
  7195     072E  00B3               	movwf	??___flmul+1
  7196     072F  30FF               	movlw	255
  7197     0730  053B               	andwf	___flmul@grs+2,w
  7198     0731  00B4               	movwf	??___flmul+2
  7199     0732  307F               	movlw	127
  7200     0733  053C               	andwf	___flmul@grs+3,w
  7201     0734  00B5               	movwf	??___flmul+3
  7202     0735  0835               	movf	??___flmul+3,w
  7203     0736  0434               	iorwf	??___flmul+2,w
  7204     0737  0433               	iorwf	??___flmul+1,w
  7205     0738  0432               	iorwf	??___flmul,w
  7206     0739  1903               	skipnz
  7207     073A  2F3C               	goto	u6661
  7208     073B  2F3D               	goto	u6660
  7209     073C                     u6661:
  7210     073C  2F40               	goto	l912
  7211     073D                     u6660:
  7212     073D                     l4931:
  7213     073D  01B8               	clrf	___flmul@aexp
  7214     073E  0AB8               	incf	___flmul@aexp,f
  7215     073F  2F45               	goto	l4935
  7216     0740                     l912:
  7217     0740  1C3E               	btfss	___flmul@prod,0
  7218     0741  2F43               	goto	u6671
  7219     0742  2F44               	goto	u6670
  7220     0743                     u6671:
  7221     0743  2F45               	goto	l4935
  7222     0744                     u6670:
  7223     0744  2F3D               	goto	l4931
  7224     0745                     l4935:
  7225     0745  0838               	movf	___flmul@aexp,w
  7226     0746  1903               	btfsc	3,2
  7227     0747  2F49               	goto	u6681
  7228     0748  2F4A               	goto	u6680
  7229     0749                     u6681:
  7230     0749  2F7B               	goto	l4945
  7231     074A                     u6680:
  7232     074A                     l4937:
  7233     074A  3001               	movlw	1
  7234     074B  07BE               	addwf	___flmul@prod,f
  7235     074C  3000               	movlw	0
  7236     074D  1803               	skipnc
  7237     074E  3001               	movlw	1
  7238     074F  07BF               	addwf	___flmul@prod+1,f
  7239     0750  3000               	movlw	0
  7240     0751  1803               	skipnc
  7241     0752  3001               	movlw	1
  7242     0753  07C0               	addwf	___flmul@prod+2,f
  7243     0754  3000               	movlw	0
  7244     0755  1803               	skipnc
  7245     0756  3001               	movlw	1
  7246     0757  07C1               	addwf	___flmul@prod+3,f
  7247     0758                     l4939:
  7248     0758  1C41               	btfss	___flmul@prod+3,0
  7249     0759  2F5B               	goto	u6691
  7250     075A  2F5C               	goto	u6690
  7251     075B                     u6691:
  7252     075B  2F7B               	goto	l4945
  7253     075C                     u6690:
  7254     075C                     l4941:
  7255     075C  083E               	movf	___flmul@prod,w
  7256     075D  00B2               	movwf	??___flmul
  7257     075E  083F               	movf	___flmul@prod+1,w
  7258     075F  00B3               	movwf	??___flmul+1
  7259     0760  0840               	movf	___flmul@prod+2,w
  7260     0761  00B4               	movwf	??___flmul+2
  7261     0762  0841               	movf	___flmul@prod+3,w
  7262     0763  00B5               	movwf	??___flmul+3
  7263     0764  3001               	movlw	1
  7264     0765  00B6               	movwf	??___flmul+4
  7265     0766                     u6705:
  7266     0766  0D35               	rlf	??___flmul+3,w
  7267     0767  0CB5               	rrf	??___flmul+3,f
  7268     0768  0CB4               	rrf	??___flmul+2,f
  7269     0769  0CB3               	rrf	??___flmul+1,f
  7270     076A  0CB2               	rrf	??___flmul,f
  7271     076B                     u6700:
  7272     076B  0BB6               	decfsz	??___flmul+4,f
  7273     076C  2F66               	goto	u6705
  7274     076D  0835               	movf	??___flmul+3,w
  7275     076E  00C1               	movwf	___flmul@prod+3
  7276     076F  0834               	movf	??___flmul+2,w
  7277     0770  00C0               	movwf	___flmul@prod+2
  7278     0771  0833               	movf	??___flmul+1,w
  7279     0772  00BF               	movwf	___flmul@prod+1
  7280     0773  0832               	movf	??___flmul,w
  7281     0774  00BE               	movwf	___flmul@prod
  7282     0775                     l4943:
  7283     0775  3001               	movlw	1
  7284     0776  07C2               	addwf	___flmul@temp,f
  7285     0777  1803               	skipnc
  7286     0778  0AC3               	incf	___flmul@temp+1,f
  7287     0779  3000               	movlw	0
  7288     077A  07C3               	addwf	___flmul@temp+1,f
  7289     077B                     l4945:
  7290     077B  0843               	movf	___flmul@temp+1,w
  7291     077C  3A80               	xorlw	128
  7292     077D  00FF               	movwf	btemp+1
  7293     077E  3080               	movlw	128
  7294     077F  027F               	subwf	btemp+1,w
  7295     0780  1D03               	skipz
  7296     0781  2F84               	goto	u6715
  7297     0782  30FF               	movlw	255
  7298     0783  0242               	subwf	___flmul@temp,w
  7299     0784                     u6715:
  7300     0784  1C03               	skipc
  7301     0785  2F87               	goto	u6711
  7302     0786  2F88               	goto	u6710
  7303     0787                     u6711:
  7304     0787  2F93               	goto	l4949
  7305     0788                     u6710:
  7306     0788                     l4947:
  7307     0788  307F               	movlw	127
  7308     0789  1283               	bcf	3,5	;RP0=0, select bank0
  7309     078A  1303               	bcf	3,6	;RP1=0, select bank0
  7310     078B  00C1               	movwf	___flmul@prod+3
  7311     078C  3080               	movlw	128
  7312     078D  00C0               	movwf	___flmul@prod+2
  7313     078E  3000               	movlw	0
  7314     078F  00BF               	movwf	___flmul@prod+1
  7315     0790  3000               	movlw	0
  7316     0791  00BE               	movwf	___flmul@prod
  7317     0792  2FC4               	goto	l4963
  7318     0793                     l4949:
  7319     0793  1283               	bcf	3,5	;RP0=0, select bank0
  7320     0794  1303               	bcf	3,6	;RP1=0, select bank0
  7321     0795  0843               	movf	___flmul@temp+1,w
  7322     0796  3A80               	xorlw	128
  7323     0797  00FF               	movwf	btemp+1
  7324     0798  3080               	movlw	128
  7325     0799  027F               	subwf	btemp+1,w
  7326     079A  1D03               	skipz
  7327     079B  2F9E               	goto	u6725
  7328     079C  3001               	movlw	1
  7329     079D  0242               	subwf	___flmul@temp,w
  7330     079E                     u6725:
  7331     079E  1803               	skipnc
  7332     079F  2FA1               	goto	u6721
  7333     07A0  2FA2               	goto	u6720
  7334     07A1                     u6721:
  7335     07A1  2FAE               	goto	l4955
  7336     07A2                     u6720:
  7337     07A2                     l4951:
  7338     07A2  3000               	movlw	0
  7339     07A3  1283               	bcf	3,5	;RP0=0, select bank0
  7340     07A4  1303               	bcf	3,6	;RP1=0, select bank0
  7341     07A5  00C1               	movwf	___flmul@prod+3
  7342     07A6  3000               	movlw	0
  7343     07A7  00C0               	movwf	___flmul@prod+2
  7344     07A8  3000               	movlw	0
  7345     07A9  00BF               	movwf	___flmul@prod+1
  7346     07AA  3000               	movlw	0
  7347     07AB  00BE               	movwf	___flmul@prod
  7348     07AC                     l4953:
  7349     07AC  01B7               	clrf	___flmul@sign
  7350     07AD  2FC4               	goto	l4963
  7351     07AE                     l4955:
  7352     07AE  1283               	bcf	3,5	;RP0=0, select bank0
  7353     07AF  1303               	bcf	3,6	;RP1=0, select bank0
  7354     07B0  0842               	movf	___flmul@temp,w
  7355     07B1  00BD               	movwf	___flmul@bexp
  7356     07B2  30FF               	movlw	255
  7357     07B3  05BE               	andwf	___flmul@prod,f
  7358     07B4  30FF               	movlw	255
  7359     07B5  05BF               	andwf	___flmul@prod+1,f
  7360     07B6  307F               	movlw	127
  7361     07B7  05C0               	andwf	___flmul@prod+2,f
  7362     07B8  3000               	movlw	0
  7363     07B9  05C1               	andwf	___flmul@prod+3,f
  7364     07BA                     l4957:
  7365     07BA  1C3D               	btfss	___flmul@bexp,0
  7366     07BB  2FBD               	goto	u6731
  7367     07BC  2FBE               	goto	u6730
  7368     07BD                     u6731:
  7369     07BD  2FBF               	goto	l4961
  7370     07BE                     u6730:
  7371     07BE                     l4959:
  7372     07BE  17C0               	bsf	___flmul@prod+2,7
  7373     07BF                     l4961:
  7374     07BF  083D               	movf	___flmul@bexp,w
  7375     07C0  00B2               	movwf	??___flmul
  7376     07C1  1003               	clrc
  7377     07C2  0C32               	rrf	??___flmul,w
  7378     07C3  00C1               	movwf	___flmul@prod+3
  7379     07C4                     l4963:
  7380     07C4  0837               	movf	___flmul@sign,w
  7381     07C5  00FF               	movwf	btemp+1
  7382     07C6  087F               	movf	btemp+1,w
  7383     07C7  04C1               	iorwf	___flmul@prod+3,f
  7384     07C8                     l4965:
  7385     07C8  0841               	movf	___flmul@prod+3,w
  7386     07C9  00AD               	movwf	?___flmul+3
  7387     07CA  0840               	movf	___flmul@prod+2,w
  7388     07CB  00AC               	movwf	?___flmul+2
  7389     07CC  083F               	movf	___flmul@prod+1,w
  7390     07CD  00AB               	movwf	?___flmul+1
  7391     07CE  083E               	movf	___flmul@prod,w
  7392     07CF  00AA               	movwf	?___flmul
  7393     07D0                     l906:
  7394     07D0  0008               	return
  7395     07D1                     __end_of___flmul:
  7396                           
  7397                           	psect	text24
  7398     1544                     __ptext24:	
  7399 ;; *************** function __Umul8_16 *****************
  7400 ;; Defined at:
  7401 ;;		line 4 in file "C:\Program Files\Microchip\xc8\v2.45\pic\sources\c99\common\Umul8_16.c"
  7402 ;; Parameters:    Size  Location     Type
  7403 ;;  multiplier      1    wreg     unsigned char 
  7404 ;;  multiplicand    1    0[COMMON] unsigned char 
  7405 ;; Auto vars:     Size  Location     Type
  7406 ;;  multiplier      1    8[COMMON] unsigned char 
  7407 ;;  word_mpld       2    6[COMMON] unsigned short 
  7408 ;;  product         2    4[COMMON] unsigned short 
  7409 ;; Return value:  Size  Location     Type
  7410 ;;                  2    0[COMMON] unsigned int 
  7411 ;; Registers used:
  7412 ;;		wreg, status,2, status,0
  7413 ;; Tracked objects:
  7414 ;;		On entry : 0/0
  7415 ;;		On exit  : 0/0
  7416 ;;		Unchanged: 0/0
  7417 ;; Data sizes:     COMMON   BANK0   BANK1   BANK3   BANK2
  7418 ;;      Params:         2       0       0       0       0
  7419 ;;      Locals:         5       0       0       0       0
  7420 ;;      Temps:          2       0       0       0       0
  7421 ;;      Totals:         9       0       0       0       0
  7422 ;;Total ram usage:        9 bytes
  7423 ;; Hardware stack levels used: 1
  7424 ;; This function calls:
  7425 ;;		Nothing
  7426 ;; This function is called by:
  7427 ;;		___flmul
  7428 ;; This function uses a non-reentrant model
  7429 ;;
  7430                           
  7431     1544                     __Umul8_16:	
  7432                           ;psect for function __Umul8_16
  7433                           
  7434                           
  7435                           ;incstack = 0
  7436                           ; Regs used in __Umul8_16: [wreg+status,2+status,0]
  7437                           ;__Umul8_16@multiplier stored from wreg
  7438     1544  00F8               	movwf	__Umul8_16@multiplier
  7439     1545                     l4555:
  7440     1545  01F4               	clrf	__Umul8_16@product
  7441     1546  01F5               	clrf	__Umul8_16@product+1
  7442     1547                     l4557:
  7443     1547  0870               	movf	__Umul8_16@multiplicand,w
  7444     1548  00F2               	movwf	??__Umul8_16
  7445     1549  01F3               	clrf	??__Umul8_16+1
  7446     154A  0872               	movf	??__Umul8_16,w
  7447     154B  00F6               	movwf	__Umul8_16@word_mpld
  7448     154C  0873               	movf	??__Umul8_16+1,w
  7449     154D  00F7               	movwf	__Umul8_16@word_mpld+1
  7450     154E                     l4559:
  7451     154E  1C78               	btfss	__Umul8_16@multiplier,0
  7452     154F  2D51               	goto	u5871
  7453     1550  2D52               	goto	u5870
  7454     1551                     u5871:
  7455     1551  2D58               	goto	l925
  7456     1552                     u5870:
  7457     1552                     l4561:
  7458     1552  0876               	movf	__Umul8_16@word_mpld,w
  7459     1553  07F4               	addwf	__Umul8_16@product,f
  7460     1554  1803               	skipnc
  7461     1555  0AF5               	incf	__Umul8_16@product+1,f
  7462     1556  0877               	movf	__Umul8_16@word_mpld+1,w
  7463     1557  07F5               	addwf	__Umul8_16@product+1,f
  7464     1558                     l925:
  7465     1558  3001               	movlw	1
  7466     1559                     u5885:
  7467     1559  1003               	clrc
  7468     155A  0DF6               	rlf	__Umul8_16@word_mpld,f
  7469     155B  0DF7               	rlf	__Umul8_16@word_mpld+1,f
  7470     155C  3EFF               	addlw	-1
  7471     155D  1D03               	skipz
  7472     155E  2D59               	goto	u5885
  7473     155F  1003               	clrc
  7474     1560  0CF8               	rrf	__Umul8_16@multiplier,f
  7475     1561                     l4563:
  7476     1561  0878               	movf	__Umul8_16@multiplier,w
  7477     1562  1D03               	btfss	3,2
  7478     1563  2D65               	goto	u5891
  7479     1564  2D66               	goto	u5890
  7480     1565                     u5891:
  7481     1565  2D4E               	goto	l4559
  7482     1566                     u5890:
  7483     1566                     l4565:
  7484     1566  0875               	movf	__Umul8_16@product+1,w
  7485     1567  00F1               	movwf	?__Umul8_16+1
  7486     1568  0874               	movf	__Umul8_16@product,w
  7487     1569  00F0               	movwf	?__Umul8_16
  7488     156A                     l927:
  7489     156A  0008               	return
  7490     156B                     __end_of__Umul8_16:
  7491                           
  7492                           	psect	text25
  7493     0A5F                     __ptext25:	
  7494 ;; *************** function ___flge *****************
  7495 ;; Defined at:
  7496 ;;		line 4 in file "C:\Program Files\Microchip\xc8\v2.45\pic\sources\c99\common\flge.c"
  7497 ;; Parameters:    Size  Location     Type
  7498 ;;  ff1             4    0[COMMON] unsigned int 
  7499 ;;  ff2             4    4[COMMON] unsigned int 
  7500 ;; Auto vars:     Size  Location     Type
  7501 ;;		None
  7502 ;; Return value:  Size  Location     Type
  7503 ;;		None               void
  7504 ;; Registers used:
  7505 ;;		wreg, status,2, status,0
  7506 ;; Tracked objects:
  7507 ;;		On entry : 0/0
  7508 ;;		On exit  : 0/0
  7509 ;;		Unchanged: 0/0
  7510 ;; Data sizes:     COMMON   BANK0   BANK1   BANK3   BANK2
  7511 ;;      Params:         8       0       0       0       0
  7512 ;;      Locals:         0       0       0       0       0
  7513 ;;      Temps:          4       0       0       0       0
  7514 ;;      Totals:        12       0       0       0       0
  7515 ;;Total ram usage:       12 bytes
  7516 ;; Hardware stack levels used: 1
  7517 ;; This function calls:
  7518 ;;		Nothing
  7519 ;; This function is called by:
  7520 ;;		_convert_float_to_string
  7521 ;; This function uses a non-reentrant model
  7522 ;;
  7523                           
  7524     0A5F                     ___flge:	
  7525                           ;psect for function ___flge
  7526                           
  7527     0A5F                     l4721:	
  7528                           ;incstack = 0
  7529                           ; Regs used in ___flge: [wreg+status,2+status,0]
  7530                           
  7531     0A5F  3000               	movlw	0
  7532     0A60  0570               	andwf	___flge@ff1,w
  7533     0A61  00F8               	movwf	??___flge
  7534     0A62  3000               	movlw	0
  7535     0A63  0571               	andwf	___flge@ff1+1,w
  7536     0A64  00F9               	movwf	??___flge+1
  7537     0A65  3080               	movlw	128
  7538     0A66  0572               	andwf	___flge@ff1+2,w
  7539     0A67  00FA               	movwf	??___flge+2
  7540     0A68  307F               	movlw	127
  7541     0A69  0573               	andwf	___flge@ff1+3,w
  7542     0A6A  00FB               	movwf	??___flge+3
  7543     0A6B  087B               	movf	??___flge+3,w
  7544     0A6C  047A               	iorwf	??___flge+2,w
  7545     0A6D  0479               	iorwf	??___flge+1,w
  7546     0A6E  0478               	iorwf	??___flge,w
  7547     0A6F  1D03               	skipz
  7548     0A70  2A72               	goto	u6131
  7549     0A71  2A73               	goto	u6130
  7550     0A72                     u6131:
  7551     0A72  2A7B               	goto	l687
  7552     0A73                     u6130:
  7553     0A73                     l4723:
  7554     0A73  3000               	movlw	0
  7555     0A74  00F3               	movwf	___flge@ff1+3
  7556     0A75  3000               	movlw	0
  7557     0A76  00F2               	movwf	___flge@ff1+2
  7558     0A77  3000               	movlw	0
  7559     0A78  00F1               	movwf	___flge@ff1+1
  7560     0A79  3000               	movlw	0
  7561     0A7A  00F0               	movwf	___flge@ff1
  7562     0A7B                     l687:
  7563     0A7B  3000               	movlw	0
  7564     0A7C  0574               	andwf	___flge@ff2,w
  7565     0A7D  00F8               	movwf	??___flge
  7566     0A7E  3000               	movlw	0
  7567     0A7F  0575               	andwf	___flge@ff2+1,w
  7568     0A80  00F9               	movwf	??___flge+1
  7569     0A81  3080               	movlw	128
  7570     0A82  0576               	andwf	___flge@ff2+2,w
  7571     0A83  00FA               	movwf	??___flge+2
  7572     0A84  307F               	movlw	127
  7573     0A85  0577               	andwf	___flge@ff2+3,w
  7574     0A86  00FB               	movwf	??___flge+3
  7575     0A87  087B               	movf	??___flge+3,w
  7576     0A88  047A               	iorwf	??___flge+2,w
  7577     0A89  0479               	iorwf	??___flge+1,w
  7578     0A8A  0478               	iorwf	??___flge,w
  7579     0A8B  1D03               	skipz
  7580     0A8C  2A8E               	goto	u6141
  7581     0A8D  2A8F               	goto	u6140
  7582     0A8E                     u6141:
  7583     0A8E  2A97               	goto	l4727
  7584     0A8F                     u6140:
  7585     0A8F                     l4725:
  7586     0A8F  3000               	movlw	0
  7587     0A90  00F7               	movwf	___flge@ff2+3
  7588     0A91  3000               	movlw	0
  7589     0A92  00F6               	movwf	___flge@ff2+2
  7590     0A93  3000               	movlw	0
  7591     0A94  00F5               	movwf	___flge@ff2+1
  7592     0A95  3000               	movlw	0
  7593     0A96  00F4               	movwf	___flge@ff2
  7594     0A97                     l4727:
  7595     0A97  1FF3               	btfss	___flge@ff1+3,7
  7596     0A98  2A9A               	goto	u6151
  7597     0A99  2A9B               	goto	u6150
  7598     0A9A                     u6151:
  7599     0A9A  2ABF               	goto	l4731
  7600     0A9B                     u6150:
  7601     0A9B                     l4729:
  7602     0A9B  3000               	movlw	0
  7603     0A9C  00F8               	movwf	??___flge
  7604     0A9D  3000               	movlw	0
  7605     0A9E  00F9               	movwf	??___flge+1
  7606     0A9F  3000               	movlw	0
  7607     0AA0  00FA               	movwf	??___flge+2
  7608     0AA1  3080               	movlw	128
  7609     0AA2  00FB               	movwf	??___flge+3
  7610     0AA3  0870               	movf	___flge@ff1,w
  7611     0AA4  02F8               	subwf	??___flge,f
  7612     0AA5  0871               	movf	___flge@ff1+1,w
  7613     0AA6  1C03               	skipc
  7614     0AA7  0F71               	incfsz	___flge@ff1+1,w
  7615     0AA8  2AAA               	goto	u6161
  7616     0AA9  2AAB               	goto	u6162
  7617     0AAA                     u6161:
  7618     0AAA  02F9               	subwf	??___flge+1,f
  7619     0AAB                     u6162:
  7620     0AAB  0872               	movf	___flge@ff1+2,w
  7621     0AAC  1C03               	skipc
  7622     0AAD  0F72               	incfsz	___flge@ff1+2,w
  7623     0AAE  2AB0               	goto	u6163
  7624     0AAF  2AB1               	goto	u6164
  7625     0AB0                     u6163:
  7626     0AB0  02FA               	subwf	??___flge+2,f
  7627     0AB1                     u6164:
  7628     0AB1  0873               	movf	___flge@ff1+3,w
  7629     0AB2  1C03               	skipc
  7630     0AB3  0F73               	incfsz	___flge@ff1+3,w
  7631     0AB4  2AB6               	goto	u6165
  7632     0AB5  2AB7               	goto	u6166
  7633     0AB6                     u6165:
  7634     0AB6  02FB               	subwf	??___flge+3,f
  7635     0AB7                     u6166:
  7636     0AB7  087B               	movf	??___flge+3,w
  7637     0AB8  00F3               	movwf	___flge@ff1+3
  7638     0AB9  087A               	movf	??___flge+2,w
  7639     0ABA  00F2               	movwf	___flge@ff1+2
  7640     0ABB  0879               	movf	??___flge+1,w
  7641     0ABC  00F1               	movwf	___flge@ff1+1
  7642     0ABD  0878               	movf	??___flge,w
  7643     0ABE  00F0               	movwf	___flge@ff1
  7644     0ABF                     l4731:
  7645     0ABF  1FF7               	btfss	___flge@ff2+3,7
  7646     0AC0  2AC2               	goto	u6171
  7647     0AC1  2AC3               	goto	u6170
  7648     0AC2                     u6171:
  7649     0AC2  2AE7               	goto	l690
  7650     0AC3                     u6170:
  7651     0AC3                     l4733:
  7652     0AC3  3000               	movlw	0
  7653     0AC4  00F8               	movwf	??___flge
  7654     0AC5  3000               	movlw	0
  7655     0AC6  00F9               	movwf	??___flge+1
  7656     0AC7  3000               	movlw	0
  7657     0AC8  00FA               	movwf	??___flge+2
  7658     0AC9  3080               	movlw	128
  7659     0ACA  00FB               	movwf	??___flge+3
  7660     0ACB  0874               	movf	___flge@ff2,w
  7661     0ACC  02F8               	subwf	??___flge,f
  7662     0ACD  0875               	movf	___flge@ff2+1,w
  7663     0ACE  1C03               	skipc
  7664     0ACF  0F75               	incfsz	___flge@ff2+1,w
  7665     0AD0  2AD2               	goto	u6181
  7666     0AD1  2AD3               	goto	u6182
  7667     0AD2                     u6181:
  7668     0AD2  02F9               	subwf	??___flge+1,f
  7669     0AD3                     u6182:
  7670     0AD3  0876               	movf	___flge@ff2+2,w
  7671     0AD4  1C03               	skipc
  7672     0AD5  0F76               	incfsz	___flge@ff2+2,w
  7673     0AD6  2AD8               	goto	u6183
  7674     0AD7  2AD9               	goto	u6184
  7675     0AD8                     u6183:
  7676     0AD8  02FA               	subwf	??___flge+2,f
  7677     0AD9                     u6184:
  7678     0AD9  0877               	movf	___flge@ff2+3,w
  7679     0ADA  1C03               	skipc
  7680     0ADB  0F77               	incfsz	___flge@ff2+3,w
  7681     0ADC  2ADE               	goto	u6185
  7682     0ADD  2ADF               	goto	u6186
  7683     0ADE                     u6185:
  7684     0ADE  02FB               	subwf	??___flge+3,f
  7685     0ADF                     u6186:
  7686     0ADF  087B               	movf	??___flge+3,w
  7687     0AE0  00F7               	movwf	___flge@ff2+3
  7688     0AE1  087A               	movf	??___flge+2,w
  7689     0AE2  00F6               	movwf	___flge@ff2+2
  7690     0AE3  0879               	movf	??___flge+1,w
  7691     0AE4  00F5               	movwf	___flge@ff2+1
  7692     0AE5  0878               	movf	??___flge,w
  7693     0AE6  00F4               	movwf	___flge@ff2
  7694     0AE7                     l690:
  7695     0AE7  3080               	movlw	128
  7696     0AE8  06F3               	xorwf	___flge@ff1+3,f
  7697     0AE9  3080               	movlw	128
  7698     0AEA  06F7               	xorwf	___flge@ff2+3,f
  7699     0AEB  0877               	movf	___flge@ff2+3,w
  7700     0AEC  0273               	subwf	___flge@ff1+3,w
  7701     0AED  1D03               	skipz
  7702     0AEE  2AF9               	goto	u6195
  7703     0AEF  0876               	movf	___flge@ff2+2,w
  7704     0AF0  0272               	subwf	___flge@ff1+2,w
  7705     0AF1  1D03               	skipz
  7706     0AF2  2AF9               	goto	u6195
  7707     0AF3  0875               	movf	___flge@ff2+1,w
  7708     0AF4  0271               	subwf	___flge@ff1+1,w
  7709     0AF5  1D03               	skipz
  7710     0AF6  2AF9               	goto	u6195
  7711     0AF7  0874               	movf	___flge@ff2,w
  7712     0AF8  0270               	subwf	___flge@ff1,w
  7713     0AF9                     u6195:
  7714     0AF9  1803               	skipnc
  7715     0AFA  2AFC               	goto	u6191
  7716     0AFB  2AFD               	goto	u6190
  7717     0AFC                     u6191:
  7718     0AFC  2AFF               	goto	l4737
  7719     0AFD                     u6190:
  7720     0AFD                     l4735:
  7721     0AFD  1003               	clrc
  7722     0AFE  2B00               	goto	l695
  7723     0AFF                     l4737:
  7724     0AFF  1403               	setc
  7725     0B00                     l695:
  7726     0B00  0008               	return
  7727     0B01                     __end_of___flge:
  7728                           
  7729                           	psect	text26
  7730     0809                     __ptext26:	
  7731 ;; *************** function ___awdiv *****************
  7732 ;; Defined at:
  7733 ;;		line 5 in file "C:\Program Files\Microchip\xc8\v2.45\pic\sources\c99\common\awdiv.c"
  7734 ;; Parameters:    Size  Location     Type
  7735 ;;  divisor         2    0[COMMON] int 
  7736 ;;  dividend        2    2[COMMON] int 
  7737 ;; Auto vars:     Size  Location     Type
  7738 ;;  quotient        2    6[COMMON] int 
  7739 ;;  sign            1    5[COMMON] unsigned char 
  7740 ;;  counter         1    4[COMMON] unsigned char 
  7741 ;; Return value:  Size  Location     Type
  7742 ;;                  2    0[COMMON] int 
  7743 ;; Registers used:
  7744 ;;		wreg, status,2, status,0, btemp+1
  7745 ;; Tracked objects:
  7746 ;;		On entry : 0/0
  7747 ;;		On exit  : 0/0
  7748 ;;		Unchanged: 0/0
  7749 ;; Data sizes:     COMMON   BANK0   BANK1   BANK3   BANK2
  7750 ;;      Params:         4       0       0       0       0
  7751 ;;      Locals:         4       0       0       0       0
  7752 ;;      Temps:          0       0       0       0       0
  7753 ;;      Totals:         8       0       0       0       0
  7754 ;;Total ram usage:        8 bytes
  7755 ;; Hardware stack levels used: 1
  7756 ;; This function calls:
  7757 ;;		Nothing
  7758 ;; This function is called by:
  7759 ;;		_convert_float_to_string
  7760 ;; This function uses a non-reentrant model
  7761 ;;
  7762                           
  7763     0809                     ___awdiv:	
  7764                           ;psect for function ___awdiv
  7765                           
  7766     0809                     l4677:	
  7767                           ;incstack = 0
  7768                           ; Regs used in ___awdiv: [wreg+status,2+status,0+btemp+1]
  7769                           
  7770     0809  01F5               	clrf	___awdiv@sign
  7771     080A                     l4679:
  7772     080A  1FF1               	btfss	___awdiv@divisor+1,7
  7773     080B  280D               	goto	u6031
  7774     080C  280E               	goto	u6030
  7775     080D                     u6031:
  7776     080D  2815               	goto	l4685
  7777     080E                     u6030:
  7778     080E                     l4681:
  7779     080E  09F0               	comf	___awdiv@divisor,f
  7780     080F  09F1               	comf	___awdiv@divisor+1,f
  7781     0810  0AF0               	incf	___awdiv@divisor,f
  7782     0811  1903               	skipnz
  7783     0812  0AF1               	incf	___awdiv@divisor+1,f
  7784     0813                     l4683:
  7785     0813  01F5               	clrf	___awdiv@sign
  7786     0814  0AF5               	incf	___awdiv@sign,f
  7787     0815                     l4685:
  7788     0815  1FF3               	btfss	___awdiv@dividend+1,7
  7789     0816  2818               	goto	u6041
  7790     0817  2819               	goto	u6040
  7791     0818                     u6041:
  7792     0818  2822               	goto	l4691
  7793     0819                     u6040:
  7794     0819                     l4687:
  7795     0819  09F2               	comf	___awdiv@dividend,f
  7796     081A  09F3               	comf	___awdiv@dividend+1,f
  7797     081B  0AF2               	incf	___awdiv@dividend,f
  7798     081C  1903               	skipnz
  7799     081D  0AF3               	incf	___awdiv@dividend+1,f
  7800     081E                     l4689:
  7801     081E  3001               	movlw	1
  7802     081F  00FF               	movwf	btemp+1
  7803     0820  087F               	movf	btemp+1,w
  7804     0821  06F5               	xorwf	___awdiv@sign,f
  7805     0822                     l4691:
  7806     0822  01F6               	clrf	___awdiv@quotient
  7807     0823  01F7               	clrf	___awdiv@quotient+1
  7808     0824                     l4693:
  7809     0824  0870               	movf	___awdiv@divisor,w
  7810     0825  0471               	iorwf	___awdiv@divisor+1,w
  7811     0826  1903               	btfsc	3,2
  7812     0827  2829               	goto	u6051
  7813     0828  282A               	goto	u6050
  7814     0829                     u6051:
  7815     0829  2861               	goto	l4713
  7816     082A                     u6050:
  7817     082A                     l4695:
  7818     082A  01F4               	clrf	___awdiv@counter
  7819     082B  0AF4               	incf	___awdiv@counter,f
  7820     082C  2838               	goto	l4701
  7821     082D                     l4697:
  7822     082D  3001               	movlw	1
  7823     082E                     u6065:
  7824     082E  1003               	clrc
  7825     082F  0DF0               	rlf	___awdiv@divisor,f
  7826     0830  0DF1               	rlf	___awdiv@divisor+1,f
  7827     0831  3EFF               	addlw	-1
  7828     0832  1D03               	skipz
  7829     0833  282E               	goto	u6065
  7830     0834                     l4699:
  7831     0834  3001               	movlw	1
  7832     0835  00FF               	movwf	btemp+1
  7833     0836  087F               	movf	btemp+1,w
  7834     0837  07F4               	addwf	___awdiv@counter,f
  7835     0838                     l4701:
  7836     0838  1FF1               	btfss	___awdiv@divisor+1,7
  7837     0839  283B               	goto	u6071
  7838     083A  283C               	goto	u6070
  7839     083B                     u6071:
  7840     083B  282D               	goto	l4697
  7841     083C                     u6070:
  7842     083C                     l4703:
  7843     083C  3001               	movlw	1
  7844     083D                     u6085:
  7845     083D  1003               	clrc
  7846     083E  0DF6               	rlf	___awdiv@quotient,f
  7847     083F  0DF7               	rlf	___awdiv@quotient+1,f
  7848     0840  3EFF               	addlw	-1
  7849     0841  1D03               	skipz
  7850     0842  283D               	goto	u6085
  7851     0843  0871               	movf	___awdiv@divisor+1,w
  7852     0844  0273               	subwf	___awdiv@dividend+1,w
  7853     0845  1D03               	skipz
  7854     0846  2849               	goto	u6095
  7855     0847  0870               	movf	___awdiv@divisor,w
  7856     0848  0272               	subwf	___awdiv@dividend,w
  7857     0849                     u6095:
  7858     0849  1C03               	skipc
  7859     084A  284C               	goto	u6091
  7860     084B  284D               	goto	u6090
  7861     084C                     u6091:
  7862     084C  2854               	goto	l4709
  7863     084D                     u6090:
  7864     084D                     l4705:
  7865     084D  0870               	movf	___awdiv@divisor,w
  7866     084E  02F2               	subwf	___awdiv@dividend,f
  7867     084F  0871               	movf	___awdiv@divisor+1,w
  7868     0850  1C03               	skipc
  7869     0851  03F3               	decf	___awdiv@dividend+1,f
  7870     0852  02F3               	subwf	___awdiv@dividend+1,f
  7871     0853                     l4707:
  7872     0853  1476               	bsf	___awdiv@quotient,0
  7873     0854                     l4709:
  7874     0854  3001               	movlw	1
  7875     0855                     u6105:
  7876     0855  1003               	clrc
  7877     0856  0CF1               	rrf	___awdiv@divisor+1,f
  7878     0857  0CF0               	rrf	___awdiv@divisor,f
  7879     0858  3EFF               	addlw	-1
  7880     0859  1D03               	skipz
  7881     085A  2855               	goto	u6105
  7882     085B                     l4711:
  7883     085B  3001               	movlw	1
  7884     085C  02F4               	subwf	___awdiv@counter,f
  7885     085D  1D03               	btfss	3,2
  7886     085E  2860               	goto	u6111
  7887     085F  2861               	goto	u6110
  7888     0860                     u6111:
  7889     0860  283C               	goto	l4703
  7890     0861                     u6110:
  7891     0861                     l4713:
  7892     0861  0875               	movf	___awdiv@sign,w
  7893     0862  1903               	btfsc	3,2
  7894     0863  2865               	goto	u6121
  7895     0864  2866               	goto	u6120
  7896     0865                     u6121:
  7897     0865  286B               	goto	l4717
  7898     0866                     u6120:
  7899     0866                     l4715:
  7900     0866  09F6               	comf	___awdiv@quotient,f
  7901     0867  09F7               	comf	___awdiv@quotient+1,f
  7902     0868  0AF6               	incf	___awdiv@quotient,f
  7903     0869  1903               	skipnz
  7904     086A  0AF7               	incf	___awdiv@quotient+1,f
  7905     086B                     l4717:
  7906     086B  0877               	movf	___awdiv@quotient+1,w
  7907     086C  00F1               	movwf	?___awdiv+1
  7908     086D  0876               	movf	___awdiv@quotient,w
  7909     086E  00F0               	movwf	?___awdiv
  7910     086F                     l662:
  7911     086F  0008               	return
  7912     0870                     __end_of___awdiv:
  7913                           
  7914                           	psect	text27
  7915     0E31                     __ptext27:	
  7916 ;; *************** function ___fldiv *****************
  7917 ;; Defined at:
  7918 ;;		line 8 in file "C:\Program Files\Microchip\xc8\v2.45\pic\sources\c99\common\sprcdiv.c"
  7919 ;; Parameters:    Size  Location     Type
  7920 ;;  a               4   10[BANK0 ] int 
  7921 ;;  b               4   14[BANK0 ] int 
  7922 ;; Auto vars:     Size  Location     Type
  7923 ;;  grs             4   30[BANK0 ] unsigned long 
  7924 ;;  rem             4   23[BANK0 ] unsigned long 
  7925 ;;  new_exp         2   28[BANK0 ] short 
  7926 ;;  aexp            1   35[BANK0 ] unsigned char 
  7927 ;;  bexp            1   34[BANK0 ] unsigned char 
  7928 ;;  sign            1   27[BANK0 ] unsigned char 
  7929 ;; Return value:  Size  Location     Type
  7930 ;;                  4   10[BANK0 ] unsigned char 
  7931 ;; Registers used:
  7932 ;;		wreg, status,2, status,0, btemp+1
  7933 ;; Tracked objects:
  7934 ;;		On entry : 0/0
  7935 ;;		On exit  : 0/0
  7936 ;;		Unchanged: 0/0
  7937 ;; Data sizes:     COMMON   BANK0   BANK1   BANK3   BANK2
  7938 ;;      Params:         0       8       0       0       0
  7939 ;;      Locals:         0      13       0       0       0
  7940 ;;      Temps:          0       5       0       0       0
  7941 ;;      Totals:         0      26       0       0       0
  7942 ;;Total ram usage:       26 bytes
  7943 ;; Hardware stack levels used: 1
  7944 ;; This function calls:
  7945 ;;		Nothing
  7946 ;; This function is called by:
  7947 ;;		_main
  7948 ;; This function uses a non-reentrant model
  7949 ;;
  7950                           
  7951     0E31                     ___fldiv:	
  7952                           ;psect for function ___fldiv
  7953                           
  7954     0E31                     l5297:	
  7955                           ;incstack = 0
  7956                           ; Regs used in ___fldiv: [wreg+status,2+status,0+btemp+1]
  7957                           
  7958     0E31  1283               	bcf	3,5	;RP0=0, select bank0
  7959     0E32  1303               	bcf	3,6	;RP1=0, select bank0
  7960     0E33  0831               	movf	___fldiv@b+3,w
  7961     0E34  3980               	andlw	128
  7962     0E35  00BB               	movwf	___fldiv@sign
  7963     0E36                     l5299:
  7964     0E36  0831               	movf	___fldiv@b+3,w
  7965     0E37  00B2               	movwf	??___fldiv
  7966     0E38  0732               	addwf	??___fldiv,w
  7967     0E39  00C2               	movwf	___fldiv@bexp
  7968     0E3A                     l5301:
  7969     0E3A  1FB0               	btfss	___fldiv@b+2,7
  7970     0E3B  2E3D               	goto	u7191
  7971     0E3C  2E3E               	goto	u7190
  7972     0E3D                     u7191:
  7973     0E3D  2E3F               	goto	l5305
  7974     0E3E                     u7190:
  7975     0E3E                     l5303:
  7976     0E3E  1442               	bsf	___fldiv@bexp,0
  7977     0E3F                     l5305:
  7978     0E3F  0842               	movf	___fldiv@bexp,w
  7979     0E40  1903               	btfsc	3,2
  7980     0E41  2E43               	goto	u7201
  7981     0E42  2E44               	goto	u7200
  7982     0E43                     u7201:
  7983     0E43  2E54               	goto	l5315
  7984     0E44                     u7200:
  7985     0E44                     l5307:
  7986     0E44  0A42               	incf	___fldiv@bexp,w
  7987     0E45  1D03               	btfss	3,2
  7988     0E46  2E48               	goto	u7211
  7989     0E47  2E49               	goto	u7210
  7990     0E48                     u7211:
  7991     0E48  2E51               	goto	l5311
  7992     0E49                     u7210:
  7993     0E49                     l5309:
  7994     0E49  3000               	movlw	0
  7995     0E4A  00B1               	movwf	___fldiv@b+3
  7996     0E4B  3000               	movlw	0
  7997     0E4C  00B0               	movwf	___fldiv@b+2
  7998     0E4D  3000               	movlw	0
  7999     0E4E  00AF               	movwf	___fldiv@b+1
  8000     0E4F  3000               	movlw	0
  8001     0E50  00AE               	movwf	___fldiv@b
  8002     0E51                     l5311:
  8003     0E51  17B0               	bsf	___fldiv@b+2,7
  8004     0E52                     l5313:
  8005     0E52  01B1               	clrf	___fldiv@b+3
  8006     0E53  2E5C               	goto	l5317
  8007     0E54                     l5315:
  8008     0E54  3000               	movlw	0
  8009     0E55  00B1               	movwf	___fldiv@b+3
  8010     0E56  3000               	movlw	0
  8011     0E57  00B0               	movwf	___fldiv@b+2
  8012     0E58  3000               	movlw	0
  8013     0E59  00AF               	movwf	___fldiv@b+1
  8014     0E5A  3000               	movlw	0
  8015     0E5B  00AE               	movwf	___fldiv@b
  8016     0E5C                     l5317:
  8017     0E5C  082D               	movf	___fldiv@a+3,w
  8018     0E5D  3980               	andlw	128
  8019     0E5E  00FF               	movwf	btemp+1
  8020     0E5F  087F               	movf	btemp+1,w
  8021     0E60  06BB               	xorwf	___fldiv@sign,f
  8022     0E61                     l5319:
  8023     0E61  082D               	movf	___fldiv@a+3,w
  8024     0E62  00B2               	movwf	??___fldiv
  8025     0E63  0732               	addwf	??___fldiv,w
  8026     0E64  00C3               	movwf	___fldiv@aexp
  8027     0E65                     l5321:
  8028     0E65  1FAC               	btfss	___fldiv@a+2,7
  8029     0E66  2E68               	goto	u7221
  8030     0E67  2E69               	goto	u7220
  8031     0E68                     u7221:
  8032     0E68  2E6A               	goto	l5325
  8033     0E69                     u7220:
  8034     0E69                     l5323:
  8035     0E69  1443               	bsf	___fldiv@aexp,0
  8036     0E6A                     l5325:
  8037     0E6A  0843               	movf	___fldiv@aexp,w
  8038     0E6B  1903               	btfsc	3,2
  8039     0E6C  2E6E               	goto	u7231
  8040     0E6D  2E6F               	goto	u7230
  8041     0E6E                     u7231:
  8042     0E6E  2E7F               	goto	l5335
  8043     0E6F                     u7230:
  8044     0E6F                     l5327:
  8045     0E6F  0A43               	incf	___fldiv@aexp,w
  8046     0E70  1D03               	btfss	3,2
  8047     0E71  2E73               	goto	u7241
  8048     0E72  2E74               	goto	u7240
  8049     0E73                     u7241:
  8050     0E73  2E7C               	goto	l5331
  8051     0E74                     u7240:
  8052     0E74                     l5329:
  8053     0E74  3000               	movlw	0
  8054     0E75  00AD               	movwf	___fldiv@a+3
  8055     0E76  3000               	movlw	0
  8056     0E77  00AC               	movwf	___fldiv@a+2
  8057     0E78  3000               	movlw	0
  8058     0E79  00AB               	movwf	___fldiv@a+1
  8059     0E7A  3000               	movlw	0
  8060     0E7B  00AA               	movwf	___fldiv@a
  8061     0E7C                     l5331:
  8062     0E7C  17AC               	bsf	___fldiv@a+2,7
  8063     0E7D                     l5333:
  8064     0E7D  01AD               	clrf	___fldiv@a+3
  8065     0E7E  2E87               	goto	l866
  8066     0E7F                     l5335:
  8067     0E7F  3000               	movlw	0
  8068     0E80  00AD               	movwf	___fldiv@a+3
  8069     0E81  3000               	movlw	0
  8070     0E82  00AC               	movwf	___fldiv@a+2
  8071     0E83  3000               	movlw	0
  8072     0E84  00AB               	movwf	___fldiv@a+1
  8073     0E85  3000               	movlw	0
  8074     0E86  00AA               	movwf	___fldiv@a
  8075     0E87                     l866:
  8076     0E87  082D               	movf	___fldiv@a+3,w
  8077     0E88  042C               	iorwf	___fldiv@a+2,w
  8078     0E89  042B               	iorwf	___fldiv@a+1,w
  8079     0E8A  042A               	iorwf	___fldiv@a,w
  8080     0E8B  1D03               	skipz
  8081     0E8C  2E8E               	goto	u7251
  8082     0E8D  2E8F               	goto	u7250
  8083     0E8E                     u7251:
  8084     0E8E  2EA8               	goto	l5345
  8085     0E8F                     u7250:
  8086     0E8F                     l5337:
  8087     0E8F  3000               	movlw	0
  8088     0E90  00B1               	movwf	___fldiv@b+3
  8089     0E91  3000               	movlw	0
  8090     0E92  00B0               	movwf	___fldiv@b+2
  8091     0E93  3000               	movlw	0
  8092     0E94  00AF               	movwf	___fldiv@b+1
  8093     0E95  3000               	movlw	0
  8094     0E96  00AE               	movwf	___fldiv@b
  8095     0E97  3080               	movlw	128
  8096     0E98  04B0               	iorwf	___fldiv@b+2,f
  8097     0E99  307F               	movlw	127
  8098     0E9A  04B1               	iorwf	___fldiv@b+3,f
  8099     0E9B                     l5339:
  8100     0E9B  083B               	movf	___fldiv@sign,w
  8101     0E9C  00FF               	movwf	btemp+1
  8102     0E9D  087F               	movf	btemp+1,w
  8103     0E9E  04B1               	iorwf	___fldiv@b+3,f
  8104     0E9F                     l5341:
  8105     0E9F  0831               	movf	___fldiv@b+3,w
  8106     0EA0  00AD               	movwf	?___fldiv+3
  8107     0EA1  0830               	movf	___fldiv@b+2,w
  8108     0EA2  00AC               	movwf	?___fldiv+2
  8109     0EA3  082F               	movf	___fldiv@b+1,w
  8110     0EA4  00AB               	movwf	?___fldiv+1
  8111     0EA5  082E               	movf	___fldiv@b,w
  8112     0EA6  00AA               	movwf	?___fldiv
  8113     0EA7  2FFF               	goto	l868
  8114     0EA8                     l5345:
  8115     0EA8  0842               	movf	___fldiv@bexp,w
  8116     0EA9  1D03               	btfss	3,2
  8117     0EAA  2EAC               	goto	u7261
  8118     0EAB  2EAD               	goto	u7260
  8119     0EAC                     u7261:
  8120     0EAC  2EB6               	goto	l5351
  8121     0EAD                     u7260:
  8122     0EAD                     l5347:
  8123     0EAD  3000               	movlw	0
  8124     0EAE  00AD               	movwf	?___fldiv+3
  8125     0EAF  3000               	movlw	0
  8126     0EB0  00AC               	movwf	?___fldiv+2
  8127     0EB1  3000               	movlw	0
  8128     0EB2  00AB               	movwf	?___fldiv+1
  8129     0EB3  3000               	movlw	0
  8130     0EB4  00AA               	movwf	?___fldiv
  8131     0EB5  2FFF               	goto	l868
  8132     0EB6                     l5351:
  8133     0EB6  0842               	movf	___fldiv@bexp,w
  8134     0EB7  00B2               	movwf	??___fldiv
  8135     0EB8  01B3               	clrf	??___fldiv+1
  8136     0EB9  0833               	movf	??___fldiv+1,w
  8137     0EBA  00B5               	movwf	??___fldiv+3
  8138     0EBB  0843               	movf	___fldiv@aexp,w
  8139     0EBC  0232               	subwf	??___fldiv,w
  8140     0EBD  00B4               	movwf	??___fldiv+2
  8141     0EBE  1C03               	skipc
  8142     0EBF  03B5               	decf	??___fldiv+3,f
  8143     0EC0  0834               	movf	??___fldiv+2,w
  8144     0EC1  3E7F               	addlw	127
  8145     0EC2  00BC               	movwf	___fldiv@new_exp
  8146     0EC3  0835               	movf	??___fldiv+3,w
  8147     0EC4  1803               	skipnc
  8148     0EC5  3E01               	addlw	1
  8149     0EC6  3E00               	addlw	0
  8150     0EC7  00BD               	movwf	___fldiv@new_exp+1
  8151     0EC8                     l5353:
  8152     0EC8  0831               	movf	___fldiv@b+3,w
  8153     0EC9  00BA               	movwf	___fldiv@rem+3
  8154     0ECA  0830               	movf	___fldiv@b+2,w
  8155     0ECB  00B9               	movwf	___fldiv@rem+2
  8156     0ECC  082F               	movf	___fldiv@b+1,w
  8157     0ECD  00B8               	movwf	___fldiv@rem+1
  8158     0ECE  082E               	movf	___fldiv@b,w
  8159     0ECF  00B7               	movwf	___fldiv@rem
  8160     0ED0                     l5355:
  8161     0ED0  3000               	movlw	0
  8162     0ED1  00B1               	movwf	___fldiv@b+3
  8163     0ED2  3000               	movlw	0
  8164     0ED3  00B0               	movwf	___fldiv@b+2
  8165     0ED4  3000               	movlw	0
  8166     0ED5  00AF               	movwf	___fldiv@b+1
  8167     0ED6  3000               	movlw	0
  8168     0ED7  00AE               	movwf	___fldiv@b
  8169     0ED8                     l5357:
  8170     0ED8  3000               	movlw	0
  8171     0ED9  00C1               	movwf	___fldiv@grs+3
  8172     0EDA  3000               	movlw	0
  8173     0EDB  00C0               	movwf	___fldiv@grs+2
  8174     0EDC  3000               	movlw	0
  8175     0EDD  00BF               	movwf	___fldiv@grs+1
  8176     0EDE  3000               	movlw	0
  8177     0EDF  00BE               	movwf	___fldiv@grs
  8178     0EE0                     l5359:
  8179     0EE0  01C3               	clrf	___fldiv@aexp
  8180     0EE1  2F2C               	goto	l5379
  8181     0EE2                     l5361:
  8182     0EE2  0843               	movf	___fldiv@aexp,w
  8183     0EE3  1903               	btfsc	3,2
  8184     0EE4  2EE6               	goto	u7271
  8185     0EE5  2EE7               	goto	u7270
  8186     0EE6                     u7271:
  8187     0EE6  2F07               	goto	l5371
  8188     0EE7                     u7270:
  8189     0EE7                     l5363:
  8190     0EE7  3001               	movlw	1
  8191     0EE8  00B2               	movwf	??___fldiv
  8192     0EE9                     u7285:
  8193     0EE9  1003               	clrc
  8194     0EEA  0DB7               	rlf	___fldiv@rem,f
  8195     0EEB  0DB8               	rlf	___fldiv@rem+1,f
  8196     0EEC  0DB9               	rlf	___fldiv@rem+2,f
  8197     0EED  0DBA               	rlf	___fldiv@rem+3,f
  8198     0EEE  0BB2               	decfsz	??___fldiv,f
  8199     0EEF  2EE9               	goto	u7285
  8200     0EF0  3001               	movlw	1
  8201     0EF1  00B2               	movwf	??___fldiv
  8202     0EF2                     u7295:
  8203     0EF2  1003               	clrc
  8204     0EF3  0DAE               	rlf	___fldiv@b,f
  8205     0EF4  0DAF               	rlf	___fldiv@b+1,f
  8206     0EF5  0DB0               	rlf	___fldiv@b+2,f
  8207     0EF6  0DB1               	rlf	___fldiv@b+3,f
  8208     0EF7  0BB2               	decfsz	??___fldiv,f
  8209     0EF8  2EF2               	goto	u7295
  8210     0EF9                     l5365:
  8211     0EF9  1FC1               	btfss	___fldiv@grs+3,7
  8212     0EFA  2EFC               	goto	u7301
  8213     0EFB  2EFD               	goto	u7300
  8214     0EFC                     u7301:
  8215     0EFC  2EFE               	goto	l5369
  8216     0EFD                     u7300:
  8217     0EFD                     l5367:
  8218     0EFD  142E               	bsf	___fldiv@b,0
  8219     0EFE                     l5369:
  8220     0EFE  3001               	movlw	1
  8221     0EFF  00B2               	movwf	??___fldiv
  8222     0F00                     u7315:
  8223     0F00  1003               	clrc
  8224     0F01  0DBE               	rlf	___fldiv@grs,f
  8225     0F02  0DBF               	rlf	___fldiv@grs+1,f
  8226     0F03  0DC0               	rlf	___fldiv@grs+2,f
  8227     0F04  0DC1               	rlf	___fldiv@grs+3,f
  8228     0F05  0BB2               	decfsz	??___fldiv,f
  8229     0F06  2F00               	goto	u7315
  8230     0F07                     l5371:
  8231     0F07  082D               	movf	___fldiv@a+3,w
  8232     0F08  023A               	subwf	___fldiv@rem+3,w
  8233     0F09  1D03               	skipz
  8234     0F0A  2F15               	goto	u7325
  8235     0F0B  082C               	movf	___fldiv@a+2,w
  8236     0F0C  0239               	subwf	___fldiv@rem+2,w
  8237     0F0D  1D03               	skipz
  8238     0F0E  2F15               	goto	u7325
  8239     0F0F  082B               	movf	___fldiv@a+1,w
  8240     0F10  0238               	subwf	___fldiv@rem+1,w
  8241     0F11  1D03               	skipz
  8242     0F12  2F15               	goto	u7325
  8243     0F13  082A               	movf	___fldiv@a,w
  8244     0F14  0237               	subwf	___fldiv@rem,w
  8245     0F15                     u7325:
  8246     0F15  1C03               	skipc
  8247     0F16  2F18               	goto	u7321
  8248     0F17  2F19               	goto	u7320
  8249     0F18                     u7321:
  8250     0F18  2F28               	goto	l5377
  8251     0F19                     u7320:
  8252     0F19                     l5373:
  8253     0F19  1741               	bsf	___fldiv@grs+3,6
  8254     0F1A                     l5375:
  8255     0F1A  082A               	movf	___fldiv@a,w
  8256     0F1B  02B7               	subwf	___fldiv@rem,f
  8257     0F1C  082B               	movf	___fldiv@a+1,w
  8258     0F1D  1C03               	skipc
  8259     0F1E  0F2B               	incfsz	___fldiv@a+1,w
  8260     0F1F  02B8               	subwf	___fldiv@rem+1,f
  8261     0F20  082C               	movf	___fldiv@a+2,w
  8262     0F21  1C03               	skipc
  8263     0F22  0F2C               	incfsz	___fldiv@a+2,w
  8264     0F23  02B9               	subwf	___fldiv@rem+2,f
  8265     0F24  082D               	movf	___fldiv@a+3,w
  8266     0F25  1C03               	skipc
  8267     0F26  0F2D               	incfsz	___fldiv@a+3,w
  8268     0F27  02BA               	subwf	___fldiv@rem+3,f
  8269     0F28                     l5377:
  8270     0F28  3001               	movlw	1
  8271     0F29  00FF               	movwf	btemp+1
  8272     0F2A  087F               	movf	btemp+1,w
  8273     0F2B  07C3               	addwf	___fldiv@aexp,f
  8274     0F2C                     l5379:
  8275     0F2C  301A               	movlw	26
  8276     0F2D  0243               	subwf	___fldiv@aexp,w
  8277     0F2E  1C03               	skipc
  8278     0F2F  2F31               	goto	u7331
  8279     0F30  2F32               	goto	u7330
  8280     0F31                     u7331:
  8281     0F31  2EE2               	goto	l5361
  8282     0F32                     u7330:
  8283     0F32                     l5381:
  8284     0F32  083A               	movf	___fldiv@rem+3,w
  8285     0F33  0439               	iorwf	___fldiv@rem+2,w
  8286     0F34  0438               	iorwf	___fldiv@rem+1,w
  8287     0F35  0437               	iorwf	___fldiv@rem,w
  8288     0F36  1903               	skipnz
  8289     0F37  2F39               	goto	u7341
  8290     0F38  2F3A               	goto	u7340
  8291     0F39                     u7341:
  8292     0F39  2F59               	goto	l5395
  8293     0F3A                     u7340:
  8294     0F3A                     l5383:
  8295     0F3A  143E               	bsf	___fldiv@grs,0
  8296     0F3B  2F59               	goto	l5395
  8297     0F3C                     l5385:
  8298     0F3C  3001               	movlw	1
  8299     0F3D  00B2               	movwf	??___fldiv
  8300     0F3E                     u7355:
  8301     0F3E  1003               	clrc
  8302     0F3F  0DAE               	rlf	___fldiv@b,f
  8303     0F40  0DAF               	rlf	___fldiv@b+1,f
  8304     0F41  0DB0               	rlf	___fldiv@b+2,f
  8305     0F42  0DB1               	rlf	___fldiv@b+3,f
  8306     0F43  0BB2               	decfsz	??___fldiv,f
  8307     0F44  2F3E               	goto	u7355
  8308     0F45                     l5387:
  8309     0F45  1FC1               	btfss	___fldiv@grs+3,7
  8310     0F46  2F48               	goto	u7361
  8311     0F47  2F49               	goto	u7360
  8312     0F48                     u7361:
  8313     0F48  2F4A               	goto	l5391
  8314     0F49                     u7360:
  8315     0F49                     l5389:
  8316     0F49  142E               	bsf	___fldiv@b,0
  8317     0F4A                     l5391:
  8318     0F4A  3001               	movlw	1
  8319     0F4B  00B2               	movwf	??___fldiv
  8320     0F4C                     u7375:
  8321     0F4C  1003               	clrc
  8322     0F4D  0DBE               	rlf	___fldiv@grs,f
  8323     0F4E  0DBF               	rlf	___fldiv@grs+1,f
  8324     0F4F  0DC0               	rlf	___fldiv@grs+2,f
  8325     0F50  0DC1               	rlf	___fldiv@grs+3,f
  8326     0F51  0BB2               	decfsz	??___fldiv,f
  8327     0F52  2F4C               	goto	u7375
  8328     0F53                     l5393:
  8329     0F53  30FF               	movlw	255
  8330     0F54  07BC               	addwf	___fldiv@new_exp,f
  8331     0F55  1803               	skipnc
  8332     0F56  0ABD               	incf	___fldiv@new_exp+1,f
  8333     0F57  30FF               	movlw	255
  8334     0F58  07BD               	addwf	___fldiv@new_exp+1,f
  8335     0F59                     l5395:
  8336     0F59  1FB0               	btfss	___fldiv@b+2,7
  8337     0F5A  2F5C               	goto	u7381
  8338     0F5B  2F5D               	goto	u7380
  8339     0F5C                     u7381:
  8340     0F5C  2F3C               	goto	l5385
  8341     0F5D                     u7380:
  8342     0F5D                     l5397:
  8343     0F5D  01C3               	clrf	___fldiv@aexp
  8344     0F5E                     l5399:
  8345     0F5E  1FC1               	btfss	___fldiv@grs+3,7
  8346     0F5F  2F61               	goto	u7391
  8347     0F60  2F62               	goto	u7390
  8348     0F61                     u7391:
  8349     0F61  2F7E               	goto	l5407
  8350     0F62                     u7390:
  8351     0F62                     l5401:
  8352     0F62  30FF               	movlw	255
  8353     0F63  053E               	andwf	___fldiv@grs,w
  8354     0F64  00B2               	movwf	??___fldiv
  8355     0F65  30FF               	movlw	255
  8356     0F66  053F               	andwf	___fldiv@grs+1,w
  8357     0F67  00B3               	movwf	??___fldiv+1
  8358     0F68  30FF               	movlw	255
  8359     0F69  0540               	andwf	___fldiv@grs+2,w
  8360     0F6A  00B4               	movwf	??___fldiv+2
  8361     0F6B  307F               	movlw	127
  8362     0F6C  0541               	andwf	___fldiv@grs+3,w
  8363     0F6D  00B5               	movwf	??___fldiv+3
  8364     0F6E  0835               	movf	??___fldiv+3,w
  8365     0F6F  0434               	iorwf	??___fldiv+2,w
  8366     0F70  0433               	iorwf	??___fldiv+1,w
  8367     0F71  0432               	iorwf	??___fldiv,w
  8368     0F72  1903               	skipnz
  8369     0F73  2F75               	goto	u7401
  8370     0F74  2F76               	goto	u7400
  8371     0F75                     u7401:
  8372     0F75  2F79               	goto	l882
  8373     0F76                     u7400:
  8374     0F76                     l5403:
  8375     0F76  01C3               	clrf	___fldiv@aexp
  8376     0F77  0AC3               	incf	___fldiv@aexp,f
  8377     0F78  2F7E               	goto	l5407
  8378     0F79                     l882:
  8379     0F79  1C2E               	btfss	___fldiv@b,0
  8380     0F7A  2F7C               	goto	u7411
  8381     0F7B  2F7D               	goto	u7410
  8382     0F7C                     u7411:
  8383     0F7C  2F7E               	goto	l5407
  8384     0F7D                     u7410:
  8385     0F7D  2F76               	goto	l5403
  8386     0F7E                     l5407:
  8387     0F7E  0843               	movf	___fldiv@aexp,w
  8388     0F7F  1903               	btfsc	3,2
  8389     0F80  2F82               	goto	u7421
  8390     0F81  2F83               	goto	u7420
  8391     0F82                     u7421:
  8392     0F82  2FB4               	goto	l5417
  8393     0F83                     u7420:
  8394     0F83                     l5409:
  8395     0F83  3001               	movlw	1
  8396     0F84  07AE               	addwf	___fldiv@b,f
  8397     0F85  3000               	movlw	0
  8398     0F86  1803               	skipnc
  8399     0F87  3001               	movlw	1
  8400     0F88  07AF               	addwf	___fldiv@b+1,f
  8401     0F89  3000               	movlw	0
  8402     0F8A  1803               	skipnc
  8403     0F8B  3001               	movlw	1
  8404     0F8C  07B0               	addwf	___fldiv@b+2,f
  8405     0F8D  3000               	movlw	0
  8406     0F8E  1803               	skipnc
  8407     0F8F  3001               	movlw	1
  8408     0F90  07B1               	addwf	___fldiv@b+3,f
  8409     0F91                     l5411:
  8410     0F91  1C31               	btfss	___fldiv@b+3,0
  8411     0F92  2F94               	goto	u7431
  8412     0F93  2F95               	goto	u7430
  8413     0F94                     u7431:
  8414     0F94  2FB4               	goto	l5417
  8415     0F95                     u7430:
  8416     0F95                     l5413:
  8417     0F95  082E               	movf	___fldiv@b,w
  8418     0F96  00B2               	movwf	??___fldiv
  8419     0F97  082F               	movf	___fldiv@b+1,w
  8420     0F98  00B3               	movwf	??___fldiv+1
  8421     0F99  0830               	movf	___fldiv@b+2,w
  8422     0F9A  00B4               	movwf	??___fldiv+2
  8423     0F9B  0831               	movf	___fldiv@b+3,w
  8424     0F9C  00B5               	movwf	??___fldiv+3
  8425     0F9D  3001               	movlw	1
  8426     0F9E  00B6               	movwf	??___fldiv+4
  8427     0F9F                     u7445:
  8428     0F9F  0D35               	rlf	??___fldiv+3,w
  8429     0FA0  0CB5               	rrf	??___fldiv+3,f
  8430     0FA1  0CB4               	rrf	??___fldiv+2,f
  8431     0FA2  0CB3               	rrf	??___fldiv+1,f
  8432     0FA3  0CB2               	rrf	??___fldiv,f
  8433     0FA4                     u7440:
  8434     0FA4  0BB6               	decfsz	??___fldiv+4,f
  8435     0FA5  2F9F               	goto	u7445
  8436     0FA6  0835               	movf	??___fldiv+3,w
  8437     0FA7  00B1               	movwf	___fldiv@b+3
  8438     0FA8  0834               	movf	??___fldiv+2,w
  8439     0FA9  00B0               	movwf	___fldiv@b+2
  8440     0FAA  0833               	movf	??___fldiv+1,w
  8441     0FAB  00AF               	movwf	___fldiv@b+1
  8442     0FAC  0832               	movf	??___fldiv,w
  8443     0FAD  00AE               	movwf	___fldiv@b
  8444     0FAE                     l5415:
  8445     0FAE  3001               	movlw	1
  8446     0FAF  07BC               	addwf	___fldiv@new_exp,f
  8447     0FB0  1803               	skipnc
  8448     0FB1  0ABD               	incf	___fldiv@new_exp+1,f
  8449     0FB2  3000               	movlw	0
  8450     0FB3  07BD               	addwf	___fldiv@new_exp+1,f
  8451     0FB4                     l5417:
  8452     0FB4  083D               	movf	___fldiv@new_exp+1,w
  8453     0FB5  3A80               	xorlw	128
  8454     0FB6  00FF               	movwf	btemp+1
  8455     0FB7  3080               	movlw	128
  8456     0FB8  027F               	subwf	btemp+1,w
  8457     0FB9  1D03               	skipz
  8458     0FBA  2FBD               	goto	u7455
  8459     0FBB  30FF               	movlw	255
  8460     0FBC  023C               	subwf	___fldiv@new_exp,w
  8461     0FBD                     u7455:
  8462     0FBD  1C03               	skipc
  8463     0FBE  2FC0               	goto	u7451
  8464     0FBF  2FC1               	goto	u7450
  8465     0FC0                     u7451:
  8466     0FC0  2FCF               	goto	l5421
  8467     0FC1                     u7450:
  8468     0FC1                     l5419:
  8469     0FC1  30FF               	movlw	255
  8470     0FC2  1283               	bcf	3,5	;RP0=0, select bank0
  8471     0FC3  1303               	bcf	3,6	;RP1=0, select bank0
  8472     0FC4  00BC               	movwf	___fldiv@new_exp
  8473     0FC5  3000               	movlw	0
  8474     0FC6  00BD               	movwf	___fldiv@new_exp+1
  8475     0FC7  3000               	movlw	0
  8476     0FC8  00B1               	movwf	___fldiv@b+3
  8477     0FC9  3000               	movlw	0
  8478     0FCA  00B0               	movwf	___fldiv@b+2
  8479     0FCB  3000               	movlw	0
  8480     0FCC  00AF               	movwf	___fldiv@b+1
  8481     0FCD  3000               	movlw	0
  8482     0FCE  00AE               	movwf	___fldiv@b
  8483     0FCF                     l5421:
  8484     0FCF  1283               	bcf	3,5	;RP0=0, select bank0
  8485     0FD0  1303               	bcf	3,6	;RP1=0, select bank0
  8486     0FD1  083D               	movf	___fldiv@new_exp+1,w
  8487     0FD2  3A80               	xorlw	128
  8488     0FD3  00FF               	movwf	btemp+1
  8489     0FD4  3080               	movlw	128
  8490     0FD5  027F               	subwf	btemp+1,w
  8491     0FD6  1D03               	skipz
  8492     0FD7  2FDA               	goto	u7465
  8493     0FD8  3001               	movlw	1
  8494     0FD9  023C               	subwf	___fldiv@new_exp,w
  8495     0FDA                     u7465:
  8496     0FDA  1803               	skipnc
  8497     0FDB  2FDD               	goto	u7461
  8498     0FDC  2FDE               	goto	u7460
  8499     0FDD                     u7461:
  8500     0FDD  2FEB               	goto	l888
  8501     0FDE                     u7460:
  8502     0FDE                     l5423:
  8503     0FDE  1283               	bcf	3,5	;RP0=0, select bank0
  8504     0FDF  1303               	bcf	3,6	;RP1=0, select bank0
  8505     0FE0  01BC               	clrf	___fldiv@new_exp
  8506     0FE1  01BD               	clrf	___fldiv@new_exp+1
  8507     0FE2                     l5425:
  8508     0FE2  3000               	movlw	0
  8509     0FE3  00B1               	movwf	___fldiv@b+3
  8510     0FE4  3000               	movlw	0
  8511     0FE5  00B0               	movwf	___fldiv@b+2
  8512     0FE6  3000               	movlw	0
  8513     0FE7  00AF               	movwf	___fldiv@b+1
  8514     0FE8  3000               	movlw	0
  8515     0FE9  00AE               	movwf	___fldiv@b
  8516     0FEA                     l5427:
  8517     0FEA  01BB               	clrf	___fldiv@sign
  8518     0FEB                     l888:
  8519     0FEB  1283               	bcf	3,5	;RP0=0, select bank0
  8520     0FEC  1303               	bcf	3,6	;RP1=0, select bank0
  8521     0FED  083C               	movf	___fldiv@new_exp,w
  8522     0FEE  00C2               	movwf	___fldiv@bexp
  8523     0FEF                     l5429:
  8524     0FEF  1C42               	btfss	___fldiv@bexp,0
  8525     0FF0  2FF2               	goto	u7471
  8526     0FF1  2FF3               	goto	u7470
  8527     0FF2                     u7471:
  8528     0FF2  2FF5               	goto	l5433
  8529     0FF3                     u7470:
  8530     0FF3                     l5431:
  8531     0FF3  17B0               	bsf	___fldiv@b+2,7
  8532     0FF4  2FF9               	goto	l5435
  8533     0FF5                     l5433:
  8534     0FF5  307F               	movlw	127
  8535     0FF6  00FF               	movwf	btemp+1
  8536     0FF7  087F               	movf	btemp+1,w
  8537     0FF8  05B0               	andwf	___fldiv@b+2,f
  8538     0FF9                     l5435:
  8539     0FF9  0842               	movf	___fldiv@bexp,w
  8540     0FFA  00B2               	movwf	??___fldiv
  8541     0FFB  1003               	clrc
  8542     0FFC  0C32               	rrf	??___fldiv,w
  8543     0FFD  00B1               	movwf	___fldiv@b+3
  8544     0FFE  2E9B               	goto	l5339
  8545     0FFF                     l868:
  8546     0FFF  0008               	return
  8547     1000                     __end_of___fldiv:
  8548     007E                     btemp	set	126	;btemp
  8549     007E                     wtemp0	set	126
  8550                           
  8551                           	psect	config
  8552                           
  8553                           ;Config register CONFIG @ 0x2007
  8554                           ;	Oscillator Selection bits
  8555                           ;	FOSC = HS, HS oscillator
  8556                           ;	Watchdog Timer Enable bit
  8557                           ;	WDTE = OFF, WDT disabled
  8558                           ;	Power-up Timer Enable bit
  8559                           ;	PWRTE = OFF, PWRT disabled
  8560                           ;	Brown-out Reset Enable bit
  8561                           ;	BOREN = OFF, BOR disabled
  8562                           ;	Low-Voltage (Single-Supply) In-Circuit Serial Programming Enable bit
  8563                           ;	LVP = OFF, RB3 is digital I/O, HV on MCLR must be used for programming
  8564                           ;	Data EEPROM Memory Code Protection bit
  8565                           ;	CPD = OFF, Data EEPROM code protection off
  8566                           ;	Flash Program Memory Write Enable bits
  8567                           ;	WRT = OFF, Write protection off; all program memory may be written to by EECON control
  8568                           ;	In-Circuit Debugger Mode bit
  8569                           ;	DEBUG = 0x1, unprogrammed default
  8570                           ;	Flash Program Memory Code Protection bit
  8571                           ;	CP = OFF, Code protection off
  8572     2007                     	org	8199
  8573     2007  3F3A               	dw	16186

Data Sizes:
    Strings     14
    Constant    16
    Data        34
    BSS         25
    Persistent  0
    Stack       0

Auto Spaces:
    Space          Size  Autos    Used
    COMMON           14     14      14
    BANK0            80     60      80
    BANK1            80      0      39
    BANK3            96      0       0
    BANK2            96      0       0

Pointer List with Targets:

    convert_float_to_string@str	PTR unsigned char  size(1) Largest target is 11
		 -> res_str(BANK1[11]), 

    gpio_pin_initialize@pin_config	PTR const struct . size(1) Largest target is 8
		 -> keypad1(BANK1[8]), keypad1$keypad_row_pins(BANK1[4]), lcd1(BANK0[6]), lcd1$lcd_data(BANK0[4]), 
		 -> led_intialize@pin_obj(COMMON[1]), 

    gpio_pin_initialize_direction@pin_config	PTR const struct . size(1) Largest target is 8
		 -> keypad1(BANK1[8]), keypad1$keypad_column_pins(BANK1[4]), keypad1$keypad_row_pins(BANK1[4]), lcd1(BANK0[6]), 
		 -> lcd1$lcd_data(BANK0[4]), led_intialize@pin_obj(COMMON[1]), 

    gpio_pin_read_logic@logic	PTR enum E1501 size(1) Largest target is 1
		 -> keypad_get_value@col_logic(BANK0[1]), 

    gpio_pin_read_logic@pin_config	PTR const struct . size(1) Largest target is 8
		 -> keypad1(BANK1[8]), keypad1$keypad_column_pins(BANK1[4]), 

    gpio_pin_write_logic@pin_config	PTR const struct . size(1) Largest target is 8
		 -> keypad1(BANK1[8]), keypad1$keypad_row_pins(BANK1[4]), lcd1(BANK0[6]), lcd1$lcd_data(BANK0[4]), 
		 -> led_intialize@pin_obj(COMMON[1]), led_turn_off@pin_obj(COMMON[1]), led_turn_on@pin_obj(COMMON[1]), 

    keypad_get_value@keypad	PTR struct . size(1) Largest target is 8
		 -> keypad1(BANK1[8]), 

    keypad_get_value@value	PTR unsigned char  size(1) Largest target is 1
		 -> key_value(BANK0[1]), 

    keypad_initialize@keypad	PTR struct . size(1) Largest target is 8
		 -> keypad1(BANK1[8]), 

    lcd_4bit_initialize@lcd	PTR const struct . size(1) Largest target is 6
		 -> lcd1(BANK0[6]), 

    lcd_4bit_send_char_data@lcd	PTR const struct . size(1) Largest target is 6
		 -> lcd1(BANK0[6]), 

    lcd_4bit_send_char_data_pos@lcd	PTR const struct . size(1) Largest target is 6
		 -> lcd1(BANK0[6]), 

    lcd_4bit_send_command@lcd	PTR const struct . size(1) Largest target is 6
		 -> lcd1(BANK0[6]), 

    lcd_4bit_send_enable_signal@lcd	PTR const struct . size(1) Largest target is 6
		 -> lcd1(BANK0[6]), 

    lcd_4bit_send_string@lcd	PTR const struct . size(1) Largest target is 6
		 -> lcd1(BANK0[6]), 

    lcd_4bit_send_string@str	PTR unsigned char  size(1) Largest target is 8
		 -> STR_1(CODE[8]), 

    lcd_4bit_send_string@str_temp	PTR unsigned char  size(1) Largest target is 8
		 -> STR_1(CODE[8]), 

    lcd_4bit_send_string_pos@lcd	PTR const struct . size(1) Largest target is 6
		 -> lcd1(BANK0[6]), 

    lcd_4bit_send_string_pos@str	PTR unsigned char  size(2) Largest target is 11
		 -> res_str(BANK1[11]), STR_2(CODE[6]), 

    lcd_4bit_send_string_pos@str_temp	PTR unsigned char  size(2) Largest target is 11
		 -> res_str(BANK1[11]), STR_2(CODE[6]), 

    lcd_4bit_set_cursor@lcd	PTR const struct . size(1) Largest target is 6
		 -> lcd1(BANK0[6]), 

    lcd_send_4bit@lcd	PTR const struct . size(1) Largest target is 6
		 -> lcd1(BANK0[6]), 

    port_registers	PTR volatile unsigned char [5] size(2) Largest target is 1
		 -> PORTA(SFR0[1]), PORTB(SFR0[1]), PORTC(SFR0[1]), PORTD(SFR0[1]), 
		 -> PORTE(SFR0[1]), 

    tris_registers	PTR volatile unsigned char [5] size(2) Largest target is 1
		 -> TRISA(SFR1[1]), TRISB(SFR1[1]), TRISC(SFR1[1]), TRISD(SFR1[1]), 
		 -> TRISE(SFR1[1]), 


Critical Paths under _main in COMMON

    _main->___xxtofl
    _main->_lcd_4bit_send_char_data_pos
    _lcd_4bit_send_string_pos->_lcd_4bit_send_char_data
    _lcd_4bit_send_string->_lcd_4bit_send_char_data
    _lcd_4bit_send_char_data->_lcd_send_4bit
    _lcd_4bit_set_cursor->_lcd_4bit_send_command
    _lcd_4bit_initialize->_lcd_4bit_send_command
    _lcd_4bit_send_command->_lcd_send_4bit
    _lcd_send_4bit->_gpio_pin_write_logic
    _lcd_4bit_send_enable_signal->_gpio_pin_write_logic
    _keypad_initialize->_gpio_pin_initialize
    _gpio_pin_initialize->_gpio_pin_write_logic
    _keypad_get_value->_gpio_pin_read_logic
    _keypad_get_value->_gpio_pin_write_logic
    _convert_float_to_string->___xxtofl
    ___xxtofl->___fltol
    ___flsub->___xxtofl
    ___fladd->___xxtofl
    ___flmul->___xxtofl
    ___fldiv->___xxtofl

Critical Paths under _main in BANK0

    _main->_convert_float_to_string
    _lcd_4bit_send_string_pos->_lcd_4bit_set_cursor
    _lcd_4bit_send_string->_lcd_4bit_send_char_data
    _lcd_4bit_send_char_data_pos->_lcd_4bit_set_cursor
    _lcd_4bit_set_cursor->_lcd_4bit_send_command
    _lcd_4bit_initialize->_lcd_4bit_send_command
    _convert_float_to_string->___flsub
    ___flsub->___fladd
    ___fladd->___xxtofl
    ___flmul->___xxtofl
    ___fldiv->___xxtofl

Critical Paths under _main in BANK1

    None.

Critical Paths under _main in BANK3

    None.

Critical Paths under _main in BANK2

    None.

Call Graph Tables:

 ---------------------------------------------------------------------------------
 (Depth) Function   	        Calls       Base Space   Used Autos Params    Refs
 ---------------------------------------------------------------------------------
 (0) _main                                                 3     3      0  153089
                                             57 BANK0      3     3      0
                            ___fladd
                            ___fldiv
                            ___flmul
                            ___flsub
                           ___xxtofl
            _convert_float_to_string
                   _keypad_get_value
                  _keypad_initialize
                _lcd_4bit_initialize
        _lcd_4bit_send_char_data_pos
              _lcd_4bit_send_command
               _lcd_4bit_send_string
           _lcd_4bit_send_string_pos
 ---------------------------------------------------------------------------------
 (1) _lcd_4bit_send_string_pos                             8     4      4   31772
                                              9 BANK0      7     3      4
            _lcd_4bit_send_char_data
                _lcd_4bit_set_cursor
 ---------------------------------------------------------------------------------
 (1) _lcd_4bit_send_string                                 4     3      1   14412
                                              3 BANK0      3     2      1
            _lcd_4bit_send_char_data
 ---------------------------------------------------------------------------------
 (2) _lcd_4bit_send_char_data                              4     3      1   14028
                                             12 COMMON     1     1      0
                                              0 BANK0      3     2      1
               _gpio_pin_write_logic
        _lcd_4bit_send_enable_signal
                      _lcd_send_4bit
 ---------------------------------------------------------------------------------
 (1) _lcd_4bit_send_char_data_pos                          6     3      3   31188
                                             13 COMMON     1     1      0
                                              9 BANK0      5     2      3
               _gpio_pin_write_logic
        _lcd_4bit_send_enable_signal
                _lcd_4bit_set_cursor
                      _lcd_send_4bit
 ---------------------------------------------------------------------------------
 (2) _lcd_4bit_set_cursor                                  6     4      2   16728
                                              3 BANK0      6     4      2
              _lcd_4bit_send_command
 ---------------------------------------------------------------------------------
 (1) _lcd_4bit_initialize                                  5     5      0   21705
                                              3 BANK0      5     5      0
                _gpio_pin_initialize
              _lcd_4bit_send_command
 ---------------------------------------------------------------------------------
 (3) _lcd_4bit_send_command                                4     3      1   15964
                                             12 COMMON     1     1      0
                                              0 BANK0      3     2      1
               _gpio_pin_write_logic
        _lcd_4bit_send_enable_signal
                      _lcd_send_4bit
 ---------------------------------------------------------------------------------
 (4) _lcd_send_4bit                                        4     3      1    5164
                                              8 COMMON     4     3      1
               _gpio_pin_write_logic
 ---------------------------------------------------------------------------------
 (4) _lcd_4bit_send_enable_signal                          3     3      0    4432
                                              8 COMMON     3     3      0
               _gpio_pin_write_logic
 ---------------------------------------------------------------------------------
 (1) _keypad_initialize                                    4     4      0    5938
                                              0 BANK0      4     4      0
                _gpio_pin_initialize
      _gpio_pin_initialize_direction
 ---------------------------------------------------------------------------------
 (2) _gpio_pin_initialize                                  4     4      0    5101
                                              8 COMMON     4     4      0
      _gpio_pin_initialize_direction
               _gpio_pin_write_logic
 ---------------------------------------------------------------------------------
 (3) _gpio_pin_initialize_direction                        7     7      0     432
                                              0 COMMON     7     7      0
 ---------------------------------------------------------------------------------
 (1) _keypad_get_value                                     9     8      1    5005
                                              8 COMMON     3     2      1
                                              0 BANK0      6     6      0
                _gpio_pin_read_logic
               _gpio_pin_write_logic
 ---------------------------------------------------------------------------------
 (5) _gpio_pin_write_logic                                 8     7      1    3780
                                              0 COMMON     8     7      1
 ---------------------------------------------------------------------------------
 (2) _gpio_pin_read_logic                                  8     7      1     402
                                              0 COMMON     8     7      1
 ---------------------------------------------------------------------------------
 (1) _convert_float_to_string                             20    15      5   12944
                                             38 BANK0     19    14      5
                            ___awdiv
                             ___flge
                            ___flmul
                            ___flsub
                            ___fltol
                            ___lbdiv
                            ___lbmod
                           ___xxtofl
 ---------------------------------------------------------------------------------
 (2) ___xxtofl                                            14    10      4    1376
                                             10 COMMON     4     0      4
                                              0 BANK0     10    10      0
                            ___fltol (ARG)
 ---------------------------------------------------------------------------------
 (2) ___lbmod                                              6     5      1     322
                                              0 COMMON     6     5      1
 ---------------------------------------------------------------------------------
 (2) ___lbdiv                                              4     3      1     331
                                              0 COMMON     4     3      1
 ---------------------------------------------------------------------------------
 (2) ___fltol                                             10     6      4     607
                                              0 COMMON    10     6      4
 ---------------------------------------------------------------------------------
 (2) ___flsub                                              8     0      8    3907
                                             30 BANK0      8     0      8
                            ___fladd
                            ___fltol (ARG)
                           ___xxtofl (ARG)
 ---------------------------------------------------------------------------------
 (3) ___fladd                                             20    12      8    3302
                                             10 BANK0     20    12      8
                           ___xxtofl (ARG)
 ---------------------------------------------------------------------------------
 (2) ___flmul                                             26    18      8    3713
                                             10 BANK0     26    18      8
                          __Umul8_16
                           ___xxtofl (ARG)
 ---------------------------------------------------------------------------------
 (3) __Umul8_16                                            9     7      2     980
                                              0 COMMON     9     7      2
 ---------------------------------------------------------------------------------
 (2) ___flge                                              12     4      8     626
                                              0 COMMON    12     4      8
 ---------------------------------------------------------------------------------
 (2) ___awdiv                                              8     4      4     625
                                              0 COMMON     8     4      4
 ---------------------------------------------------------------------------------
 (1) ___fldiv                                             26    18      8    1863
                                             10 BANK0     26    18      8
                           ___xxtofl (ARG)
 ---------------------------------------------------------------------------------
 Estimated maximum stack depth 5
 ---------------------------------------------------------------------------------

 Call Graph Graphs:

 _main (ROOT)
   ___fladd
     ___xxtofl (ARG)
       ___fltol (ARG)
   ___fldiv
     ___xxtofl (ARG)
   ___flmul
     __Umul8_16
     ___xxtofl (ARG)
   ___flsub
     ___fladd
     ___fltol (ARG)
     ___xxtofl (ARG)
   ___xxtofl
   _convert_float_to_string
     ___awdiv
     ___flge
     ___flmul
     ___flsub
     ___fltol
     ___lbdiv
     ___lbmod
     ___xxtofl
   _keypad_get_value
     _gpio_pin_read_logic
     _gpio_pin_write_logic
   _keypad_initialize
     _gpio_pin_initialize
       _gpio_pin_initialize_direction
       _gpio_pin_write_logic
     _gpio_pin_initialize_direction
   _lcd_4bit_initialize
     _gpio_pin_initialize
     _lcd_4bit_send_command
       _gpio_pin_write_logic
       _lcd_4bit_send_enable_signal
         _gpio_pin_write_logic
       _lcd_send_4bit
         _gpio_pin_write_logic
   _lcd_4bit_send_char_data_pos
     _gpio_pin_write_logic
     _lcd_4bit_send_enable_signal
     _lcd_4bit_set_cursor
       _lcd_4bit_send_command
     _lcd_send_4bit
   _lcd_4bit_send_command
   _lcd_4bit_send_string
     _lcd_4bit_send_char_data
       _gpio_pin_write_logic
       _lcd_4bit_send_enable_signal
       _lcd_send_4bit
   _lcd_4bit_send_string_pos
     _lcd_4bit_send_char_data
     _lcd_4bit_set_cursor

 Address spaces:
Name               Size   Autos  Total    Cost      Usage
BANK3               60      0       0       9        0.0%
BITBANK3            60      0       0       8        0.0%
SFR3                 0      0       0       4        0.0%
BITSFR3              0      0       0       4        0.0%
BANK2               60      0       0      11        0.0%
BITBANK2            60      0       0      10        0.0%
SFR2                 0      0       0       5        0.0%
BITSFR2              0      0       0       5        0.0%
BANK1               50      0      27       7       48.8%
BITBANK1            50      0       0       6        0.0%
SFR1                 0      0       0       2        0.0%
BITSFR1              0      0       0       2        0.0%
BANK0               50     3C      50       5      100.0%
BITBANK0            50      0       0       4        0.0%
SFR0                 0      0       0       1        0.0%
BITSFR0              0      0       0       1        0.0%
COMMON               E      E       E       1      100.0%
BITCOMMON            E      0       0       0        0.0%
CODE                 0      0       0       0        0.0%
DATA                 0      0      85      12        0.0%
ABS                  0      0      85       3        0.0%
NULL                 0      0       0       0        0.0%
STACK                0      0       0       2        0.0%
EEDATA             100      0       0       0        0.0%


Microchip Technology PIC Macro Assembler V2.45 build 20230818022343 
Symbol Table                                                                                   Mon May 20 01:31:14 2024

                         ?_lcd_send_4bit 0078                             ___fldiv@aexp 0043  
                           ___fldiv@bexp 0042                                        pc 0002  
                           ___fldiv@sign 003B                                       l32 1707  
                                     l42 17FF                                       l27 0C87  
                                     l52 15C4                                       l37 17A5  
                                     l62 004A                             ___awdiv@sign 0075  
                                     fsr 0004                      __Umul8_16@word_mpld 0076  
                                    l212 166F                                      l206 163E  
                                    l215 0972                                      l322 16B9  
                                    l306 08FD                                      l226 09DD  
                                    l315 0960                                      l163 1756  
                                    l332 15DC                                      l158 0E30  
                                    l167 151E                                      l336 15F8  
                                    l168 151F                                      l193 1632  
                                    l710 08D0                                      l703 08E5  
                                    l287 09F5                                      l296 0A5E  
                                    l713 08E5                                      l810 028F  
                                    l723 1593                                      l662 086F  
                                    l814 0312                                      l831 03DB  
                                    l823 048B                                      l727 14F5  
                                    l912 0740                                      l816 02EB  
                                    l841 0421                                      l729 14FC  
                                    l690 0AE7                                      l906 07D0  
                                    l835 03FF                                      l925 1558  
                                    l853 048B                                      l950 0B25  
                                    l695 0B00                                      l687 0A7B  
                                    l927 156A                                      l856 1543  
                                    l952 0BBA                                      l882 0F79  
                                    l866 0E87                                      l963 0B84  
                                    l868 0FFF                                      l964 0B90  
                                    l888 0FEB            gpio_pin_initialize@pin_config 007B  
                   keypad_initialize@ret 0020                                      _exp 0060  
                                    _res 005C                                      fsr0 0004  
                                    indf 0000      __end_of_lcd_4bit_send_enable_signal 1520  
            _lcd_4bit_send_enable_signal 14FD                             ___flmul@aexp 0038  
                           ___flmul@bexp 003D                  _convert_float_to_string 0C88  
                           ___flmul@sign 0037                             ___flmul@temp 0042  
                           ___flmul@prod 003E                             ___fltol@exp1 0079  
                                   l5001 0B7E                                     l5011 0BB1  
                                   l5003 0B88                                     l5013 0BB2  
                                   l5005 0B92                                     l4301 1755  
                                   l5021 0BC4                                     l5101 0032  
                                   l5007 0BA8                                     l4311 1505  
                                   l5031 0BDB                                     l5023 0BC5  
                                   l5103 003A                                     l4401 0299  
                                   l5009 0BAD                                     l4313 150F  
                                   l4305 14FE                                     l4321 16BD  
                                   l5041 0C0B                                     l5033 0BE8  
                                   l5025 0BDA                                     l5017 0BBE  
                                   l4411 02A5                                     l4403 029D  
                                   l5211 0E20                                     l4331 09DF  
                                   l4315 1513                                     l4307 14FE  
                                   l4323 16C2                                     l5051 0C53  
                                   l5043 0C24                                     l5035 0BEC  
                                   l5019 0BBF                                     l5301 0E3A  
                                   l4501 03FE                                     l4421 02AF  
                                   l4413 02A7                                     l4405 029F  
                                   l5213 0E24                                     l5205 0DAF  
                                   l4341 0A20                                     l4333 09DF  
                                   l5221 1638                                     l4309 1503  
                                   l4325 16C4                                     l5053 0C60  
                                   l5045 0C2A                                     l5037 0BF2  
                                   l5061 17A9                                     l5311 0E51  
                                   l5303 0E3E                                     l4503 0403  
                                   l4511 040F                                     l4431 02B9  
                                   l4423 02B1                                     l4415 02A9  
                                   l4407 02A1                                     l5215 0E2A  
                                   l5207 0E13                                     l5151 0C91  
                                   l5143 0C88                                     l4271 08E7  
                                   l4335 09E4                                     l5231 1641  
                                   l5223 163D                                     l4327 1706  
                                   l4319 16BD                                     l5055 0C6D  
                                   l5047 0C39                                     l5039 0BFC  
                                   l5063 17A9                                     l5071 1597  
                                   l5401 0F62                                     l5321 0E65  
                                   l5313 0E52                                     l5305 0E3F  
                                   l4505 0406                                     l4513 0413  
                                   l4441 02F6                                     l4425 02B3  
                                   l4417 02AB                                     l4409 02A3  
                                   l4433 02BB                                     l4361 0241  
                                   l5209 0E1C                                     l5161 0CEF  
                                   l5153 0CAA                                     l5145 0C88  
                                   l4273 08EC                                     l4345 0A47  
                                   l4337 09F3                                     l5233 164D  
                                   l5225 1640                                     l5057 0C7A  
                                   l5049 0C46                                     l4601 1604  
                                   l5065 17AE                                     l5081 15A4  
                                   l5073 1597                                     l5411 0F91  
                                   l5403 0F76                                     l5331 0E7C  
                                   l5323 0E69                                     l5307 0E44  
                                   l5315 0E54                                     l4531 045B  
                                   l4523 0426                                     l4515 0414  
                                   l4507 0408                                     l4443 02F8  
                                   l4451 030A                                     l4435 02BC  
                                   l4427 02B5                                     l4419 02AD  
                                   l4371 0255                                     l4363 0242  
                                   l4355 0234                                     l5171 0D15  
                                   l5163 0CF9                                     l5155 0CB1  
                                   l5147 0C8F                                     l4283 094F  
                                   l4275 08FB                                     l5251 0967  
                                   l4339 09F8                                     l4347 0A5D  
                                   l5243 1658                                     l5235 1651  
                                   l5219 1636                                     l4603 1607  
                                   l4611 1631                                     l5067 17AF  
                                   l5083 15B2                                     l5075 1599  
                                   l5091 000B                                     l5421 0FCF  
                                   l5413 0F95                                     l5341 0E9F  
                                   l5333 0E7D                                     l5325 0E6A  
                                   l5317 0E5C                                     l5309 0E49  
                                   l4701 0838                                     l4541 0476  
                                   l4525 042B                                     l4533 045F  
                                   l4517 0418                                     l4509 040D  
                                   l4461 033B                                     l4453 0316  
                                   l4445 02FC                                     l4437 02D3  
                                   l4429 02B7                                     l4381 0269  
                                   l4365 0247                                     l4373 0257  
                                   l4357 0239                                     l5181 0D3B  
                                   l5173 0D20                                     l5165 0CFE  
                                   l5157 0CB5                                     l5149 0C90  
                                   l4277 0900                                     l4285 095F  
                                   l4269 08E7                                     l5253 096C  
                                   l5245 1665                                     l5237 1657  
                                   l4293 1709                                     l4605 1614  
                                   l5085 15B8                                     l5077 159E  
                                   l5093 0010                                     l5431 0FF3  
                                   l5423 0FDE                                     l5415 0FAE  
                                   l5407 0F7E                                     l5351 0EB6  
                                   l5327 0E6F                                     l5335 0E7F  
                                   l5319 0E61                                     l4711 085B  
                                   l4703 083C                                     l4551 0486  
                                   l4543 0477                                     l4535 0464  
                                   l4527 0439                                     l4519 041E  
                                   l4471 0350                                     l4463 033F  
                                   l4455 031B                                     l4447 02FD  
                                   l4439 02EF                                     l4391 027C  
                                   l4383 026D                                     l4375 025F  
                                   l4367 024C                                     l4359 023D  
                                   l5183 0D40                                     l5175 0D2B  
                                   l5191 0D5A                                     l5167 0D11  
                                   l5159 0CD4                                     l4279 0928  
                                   l5271 0983                                     l5263 0975  
                                   l5255 0971                                     l5247 1669  
                                   l4295 1709                                     l5079 15A3  
                                   l5095 0016                                     l5087 0007  
                                   l5433 0FF5                                     l5425 0FE2  
                                   l5409 0F83                                     l5417 0FB4  
                                   l5361 0EE2                                     l5353 0EC8  
                                   l5337 0E8F                                     l5345 0EA8  
                                   l5329 0E74                                     l4705 084D  
                                   l4713 0861                                     l4721 0A5F  
                                   l4561 1552                                     l4553 048A  
                                   l4545 047B                                     l4537 0469  
                                   l4529 043D                                     l4481 03B3  
                                   l4473 0351                                     l4465 0343  
                                   l4449 0306                                     l4393 0284  
                                   l4385 0271                                     l4377 0262  
                                   l4369 0254                                     l4801 1592  
                                   l5177 0D30                                     l5169 0D13  
                                   l5193 0D5F                                     l5273 0987  
                                   l5257 0974                                     l5249 0964  
                                   l4297 170E                                     l4609 1621  
                                   l5097 0017                                     l5089 0007  
                                   l5435 0FF9                                     l5427 0FEA  
                                   l5419 0FC1                                     l5363 0EE7  
                                   l5371 0F07                                     l5355 0ED0  
                                   l5347 0EAD                                     l5339 0E9B  
                                   l4715 0866                                     l4707 0853  
                                   l4731 0ABF                                     l4723 0A73  
                                   l4563 1561                                     l4555 1545  
                                   l4547 047D                                     l4539 0471  
                                   l4491 03E3                                     l4483 03B7  
                                   l4475 035A                                     l4467 034A  
                                   l4459 0324                                     l4395 0285  
                                   l4387 0272                                     l4379 0268  
                                   l4811 14EB                                     l5195 0D67  
                                   l5179 0D32                                     l5291 09CD  
                                   l5283 099C                                     l5275 098D  
                                   l4571 15C6                                     l4299 1710  
                                   l5099 0022                                     l5429 0FEF  
                                   l5381 0F32                                     l5373 0F19  
                                   l5365 0EF9                                     l5357 0ED8  
                                   l4717 086B                                     l4709 0854  
                                   l4733 0AC3                                     l4725 0A8F  
                                   l4565 1566                                     l4557 1547  
                                   l4901 0665                                     l4549 0481  
                                   l4493 03E8                                     l4485 03B9  
                                   l4469 034C                                     l4477 035F  
                                   l4389 0277                                     l4397 0287  
                                   l4821 1520                                     l4741 0870  
                                   l4813 14ED                                     l4805 14DB  
                                   l5197 0D6B                                     l5189 0D46  
                                   l4661 1671                                     l5293 09D3  
                                   l5285 09AB                                     l5277 099B  
                                   l5269 0976                                     l4573 15CB  
                                   l5391 0F4A                                     l5383 0F3A  
                                   l5375 0F1A                                     l5367 0EFD  
                                   l5359 0EE0                                     l4735 0AFD  
                                   l4727 0A97                                     l4559 154E  
                                   l4911 06F5                                     l4903 0673  
                                   l4831 0495                                     l4487 03BE  
                                   l4479 0375                                     l4399 0295  
                                   l4823 1524                                     l4751 0896  
                                   l4743 0879                                     l4815 14F3  
                                   l4807 14DD                                     l5199 0DAE  
                                   l4671 16B6                                     l4663 1676  
                                   l5295 09D7                                     l5287 09B0  
                                   l4575 15DA                                     l4591 17A4  
                                   l4583 175A                                     l5393 0F53  
                                   l5385 0F3C                                     l5377 0F28  
                                   l5369 0EFE                                     l5297 0E31  
                                   l4681 080E                                     l4737 0AFF  
                                   l4729 0A9B                                     l4921 071A  
                                   l4913 0703                                     l4905 069E  
                                   l4841 04AC                                     l4833 0499  
                                   l4497 03F1                                     l4489 03CD  
                                   l4753 089E                                     l4817 14FB  
                                   l4809 14DE                                     l4673 16B8  
                                   l4665 167B                                     l5289 09C9  
                                   l4577 15DE                                     l4569 15C6  
                                   l4585 175A                                     l5641 0079  
                                   l5387 0F45                                     l5395 0F59  
                                   l5379 0F2C                                     l5299 0E36  
                                   l4691 0822                                     l4683 0813  
                                   l4931 073D                                     l4915 070C  
                                   l4923 0720                                     l4907 06C4  
                                   l4851 04C3                                     l4843 04AE  
                                   l4835 049A                                     l4827 048C  
                                   l4499 03FA                                     l4763 08AC  
                                   l4755 08A0                                     l4747 0882  
                                   l4667 168A                                     l4659 1671  
                                   l4579 15F7                                     l4595 15FC  
                                   l4587 175F                                     l5651 0099  
                                   l5643 0081                                     l5635 004B  
                                   l5397 0F5D                                     l5389 0F49  
                                   l4693 0824                                     l4685 0815  
                                   l4677 0809                                     l4941 075C  
                                   l4925 0724                                     l4917 0710  
                                   l4909 06EC                                     l4861 04D8  
                                   l4853 04C4                                     l4845 04B6  
                                   l4837 049F                                     l4829 0491  
                                   l4773 08C5                                     l4765 08B5  
                                   l4757 08A4                                     l4749 0895  
                                   l4781 156D                                     l4669 168C  
                                   l4597 15FD                                     l4589 1761  
                                   l5661 00C2                                     l5653 009B  
                                   l5645 0088                                     l5637 0061  
                                   l5399 0F5E                                     l4695 082A  
                                   l4687 0819                                     l4679 080A  
                                   l4951 07A2                                     l4943 0775  
                                   l4935 0745                                     l4927 0725  
                                   l4919 0711                                     l4871 04F3  
                                   l4863 04E0                                     l4855 04C9  
                                   l4847 04BB                                     l4839 04A4  
                                   l4775 08D5                                     l4767 08BE  
                                   l4791 157F                                     l4783 1572  
                                   l4599 1602                                     l5671 0151  
                                   l5655 00A8                                     l5647 008E  
                                   l5663 00C5                                     l5639 006F  
                                   l4697 082D                                     l4689 081E  
                                   l4961 07BF                                     l4953 07AC  
                                   l4937 074A                                     l4945 077B  
                                   l4929 0729                                     l4881 056F  
                                   l4873 0501                                     l4865 04E5  
                                   l4857 04CE                                     l4849 04BF  
                                   l4777 08DA                                     l4793 1587  
                                   l4785 1575                                     l5673 0193  
                                   l5681 01FE                                     l5665 00CB  
                                   l5657 00B0                                     l5649 0096  
                                   l4699 0834                                     l4955 07AE  
                                   l4963 07C4                                     l4947 0788  
                                   l4939 0758                                     l4891 05DB  
                                   l4883 058B                                     l4875 050E  
                                   l4867 04EA                                     l4859 04D6  
                                   l4795 1589                                     l4787 1577  
                                   l4779 156C                                     l4971 0B09  
                                   l5771 1629                                     l5683 0203  
                                   l5675 01D5                                     l5667 00CD  
                                   l5659 00B4                                     l4965 07C8  
                                   l4957 07BA                                     l4949 0793  
                                   l4893 05E9                                     l4885 05A7  
                                   l4877 0529                                     l4797 158A  
                                   l4789 157B                                     l4981 0B36  
                                   l4973 0B0D                                     l5773 0A55  
                                   l5677 01E3                                     l5669 010F  
                                   l4959 07BE                                     l4895 0606  
                                   l4887 05B0                                     l4879 0545  
                                   l4799 158C                                     l4991 0B51  
                                   l4983 0B39                                     l4975 0B1D  
                                   l5775 0957                                     l5679 01E8  
                                   l4897 061D                                     l4889 05BE  
                                   l4993 0B5F                                     l4985 0B3D  
                                   l4977 0B2D                                     l4969 0B04  
                                   l5769 01F0                                     l4899 063A  
                                   l4995 0B68                                     l4987 0B46  
                                   l4997 0B6F                                     l4989 0B4D  
                                   l4999 0B7A                                     STR_1 1020  
                                   STR_2 1028                                     u6000 167B  
                                   u6001 167A                                     u6010 168A  
                                   u6011 1689                                     u6110 0861  
                                   u6030 080E                                     u5310 170E  
                                   u6111 0860                                     u6031 080D  
                                   u5311 170D                                     u6120 0866  
                                   u6040 0819                                     u6200 0879  
                                   u6024 16AC                                     u5304 0935  
                                   u6121 0865                                     u6105 0855  
                                   u6041 0818                                     u6201 0878  
                                   u6025 16AA                                     u5305 0933  
                                   u6050 082A                                     u6130 0A73  
                                   u5410 0241                                     u6210 0890  
                                   u6051 0829                                     u6131 0A72  
                                   u5411 0240                                     u6140 0A8F  
                                   u5500 02D3                                     u5420 0247  
                                   u6220 08A4                                     u6300 1572  
                                   u7020 0C8F                                     u5404 0A2D  
                                   u7100 1657                                     u5340 1503  
                                   u6141 0A8E                                     u5501 02D2  
                                   u5421 0246                                     u6221 08A3  
                                   u6301 1571                                     u7021 0C8E  
                                   u5405 0A2B                                     u7101 1656  
                                   u5341 1502                                     u5325 172E  
                                   u6070 083C                                     u6150 0A9B  
                                   u5510 02DE                                     u5430 024C  
                                   u6230 08AB                                     u6310 157F  
                                   u7030 0CAA                                     u5270 08EC  
                                   u7110 166F                                     u5350 16C2  
                                   u6071 083B                                     u6151 0A9A  
                                   u5511 02DC                                     u5431 024B  
                                   u6231 08AA                                     u6215 088B  
                                   u6311 157E                                     u7031 0CA9  
                                   u5271 08EB                                     u7111 166E  
                                   u5335 1743                                     u5351 16C1  
                                   u7200 0E44                                     u6400 04C3  
                                   u5600 033F                                     u5520 02DF  
                                   u5440 0268                                     u6320 1587  
                                   u7040 0CEF                                     u5280 08FB  
                                   u7120 096C                                     u7201 0E43  
                                   u6065 082E                                     u6161 0AAA  
                                   u6401 04C2                                     u5601 033E  
                                   u5505 02CF                                     u5441 0267  
                                   u6321 1586                                     u7041 0CEE  
                                   u5281 08FA                                     u7121 096B  
                                   u7210 0E49                                     u6090 084D  
                                   u6170 0AC3                                     u6162 0AAB  
                                   u6410 04C9                                     u5610 0343  
                                   u5530 02EF                                     u5450 0271  
                                   u6250 08BD                                     u6330 1592  
                                   u7050 0D30                                     u7130 0971  
                                   u5370 09E4                                     u7211 0E48  
                                   u6091 084C                                     u6171 0AC2  
                                   u6163 0AB0                                     u6411 04C8  
                                   u5611 0342                                     u5531 02EE  
                                   u5451 0270                                     u6251 08BC  
                                   u6331 1591                                     u7051 0D2F  
                                   u7131 0970                                     u5371 09E3  
                                   u7300 0EFD                                     u7220 0E69  
                                   u6164 0AB1                                     u6420 04CE  
                                   u5620 0350                                     u5540 02FC  
                                   u5460 0277                                     u6260 08C4  
                                   u7060 0D45                                     u7140 098D  
                                   u5380 09F3                                     u7301 0EFC  
                                   u7221 0E68                                     u6085 083D  
                                   u6181 0AD2                                     u6165 0AB6  
                                   u6501 05CD                                     u6421 04CD  
                                   u5621 034F                                     u5541 02FB  
                                   u5461 0276                                     u6261 08C3  
                                   u6245 08AD                                     u7061 0D44  
                                   u7141 098C                                     u5381 09F2  
                                   u5365 16D1                                     u7230 0E6F  
                                   u6190 0AFD                                     u6182 0AD3  
                                   u6166 0AB7                                     u6502 05D4  
                                   u6430 04E5                                     u5710 03FE  
                                   u5470 027C                                     u6350 14F3  
                                   u7070 0D5F                                     u5294 090D  
                                   u7150 09B0                                     u7231 0E6E  
                                   u6095 0849                                     u6191 0AFC  
                                   u6183 0AD8                                     u6511 05F8  
                                   u6503 05DB                                     u6431 04E4  
                                   u5711 03FD                                     u5471 027B  
                                   u6351 14F2                                     u7071 0D5E  
                                   u5295 090B                                     u7151 09AF  
                                   u7400 0F76                                     u7320 0F19  
                                   u7240 0E74                                     u6184 0AD9  
                                   u6512 05FF                                     u6440 04EA  
                                   u5800 044C                                     u5720 0403  
                                   u5640 0375                                     u5560 0312  
                                   u5480 0295                                     u6280 08D5  
                                   u6360 14FB                                     u7080 0E2A  
                                   u7401 0F75                                     u7321 0F18  
                                   u7241 0E73                                     u6185 0ADE  
                                   u6513 0606                                     u6441 04E9  
                                   u5721 0402                                     u5705 03F3  
                                   u5641 0374                                     u5561 0311  
                                   u5481 0294                                     u6281 08D4  
                                   u6361 14FA                                     u6345 14E1  
                                   u7081 0E29                                     u7410 0F7D  
                                   u7330 0F32                                     u7250 0E8F  
                                   u6186 0ADF                                     u6370 0499  
                                   u5810 045B                                     u5730 040D  
                                   u5570 0316                                     u5490 0299  
                                   u6290 08DA                                     u7170 09D3  
                                   u5394 0A05                                     u7090 163D  
                                   u7411 0F7C                                     u7331 0F31  
                                   u7315 0F00                                     u7251 0E8E  
                                   u6195 0AF9                                     u6531 062C  
                                   u6451 0537                                     u6371 0498  
                                   u5811 045A                                     u5731 040C  
                                   u5651 038C                                     u5643 0371  
                                   u5635 0353                                     u5571 0315  
                                   u5555 02FF                                     u5491 0298  
                                   u6291 08D9                                     u6275 08C7  
                                   u7171 09D2                                     u5395 0A03  
                                   u7091 163C                                     u7420 0F83  
                                   u7340 0F3A                                     u7260 0EAD  
                                   u6700 076B                                     u6620 0710  
                                   u6532 0633                                     u6452 053E  
                                   u6380 049F                                     u5820 0464  
                                   u5740 0413                                     u5660 03A0  
                                   u5652 038D                                     u5580 031B  
                                   u7180 09DD                                     u5900 15CB  
                                   u7421 0F82                                     u7341 0F39  
                                   u7325 0F15                                     u7261 0EAC  
                                   u6621 070F                                     u6605 06EE  
                                   u6541 0657                                     u6533 063A  
                                   u6525 0608                                     u6461 0553  
                                   u6453 0545                                     u6381 049E  
                                   u5821 0463                                     u5805 0447  
                                   u5741 0412                                     u5661 03A1  
                                   u5653 0392                                     u5581 031A  
                                   u7181 09DC                                     u7165 09B3  
                                   u5901 15CA                                     u7430 0F95  
                                   u7270 0EE7                                     u7190 0E3E  
                                   u6710 0788                                     u6542 065E  
                                   u6462 055A                                     u6390 04A4  
                                   u5830 0469                                     u5750 0418  
                                   u5670 03BE                                     u5662 03A6  
                                   u5654 0393                                     u5910 15DA  
                                   u7431 0F94                                     u7271 0EE6  
                                   u7191 0E3D                                     u6711 0787  
                                   u6615 0705                                     u6551 0682  
                                   u6543 0665                                     u6471 057D  
                                   u6463 0561                                     u6391 04A3  
                                   u5831 0468                                     u5751 0417  
                                   u5671 03BD                                     u5663 03A7  
                                   u5655 0398                                     u5591 032D  
                                   u5911 15D9                                     u7440 0FA4  
                                   u7360 0F49                                     u6720 07A2  
                                   u6640 0724                                     u6560 06AA  
                                   u6552 0689                                     u6472 0584  
                                   u5840 0476                                     u5760 041E  
                                   u5680 03E3                                     u5656 0399  
                                   u5592 0334                                     u6800 0B6E  
                                   u5920 175F                                     u7361 0F48  
                                   u6721 07A1                                     u6705 0766  
                                   u6641 0723                                     u6553 0690  
                                   u6481 0599                                     u6473 058B  
                                   u5841 0475                                     u5761 041D  
                                   u5681 03E2                                     u5593 033B  
                                   u6801 0B6D                                     u5921 175E  
                                   u7450 0FC1                                     u6730 07BE  
                                   u6650 0729                                     u6482 05A0  
                                   u5850 047B                                     u5770 0425  
                                   u5690 03E8                                     u7451 0FC0  
                                   u7355 0F3E                                     u6731 07BD  
                                   u6715 0784                                     u6651 0728  
                                   u6635 0713                                     u6571 06B6  
                                   u6483 05A7                                     u5851 047A  
                                   u5771 0424                                     u5691 03E7  
                                   u7460 0FDE                                     u7380 0F5D  
                                   u6660 073D                                     u6580 06D2  
                                   u6572 06BD                                     u5860 048A  
                                   u5780 042B                                     u6820 0B7E  
                                   u6740 0B09                                     u5940 1602  
                                   u6900 17AE                                     u7461 0FDD  
                                   u7445 0F9F                                     u7381 0F5C  
                                   u7285 0EE9                                     u6725 079E  
                                   u6661 073C                                     u6573 06C4  
                                   u6565 06A5                                     u5861 0489  
                                   u5781 042A                                     u6821 0B7D  
                                   u6741 0B08                                     u5941 1601  
                                   u6901 17AD                                     u7470 0FF3  
                                   u7390 0F62                                     u5870 1552  
                                   u6670 0744                                     u5790 043D  
                                   u6830 0B84                                     u6750 0B0D  
                                   u7471 0FF2                                     u7455 0FBD  
                                   u7391 0F61                                     u7375 0F4C  
                                   u7295 0EF2                                     u5871 1551  
                                   u6671 0743                                     u6591 06DE  
                                   u6495 05A9                                     u5791 043C  
                                   u6831 0B83                                     u6815 0B73  
                                   u6751 0B0C                                     u5935 176F  
                                   u6680 074A                                     u6592 06E5  
                                   u6840 0B88                                     u6760 0B2D  
                                   u6920 159E                                     u7465 0FDA  
                                   u6681 0749                                     u6593 06EC  
                                   u6585 06CD                                     u6841 0B87  
                                   u6761 0B2C                                     u6921 159D  
                                   u5890 1566                                     u6690 075C  
                                   u6850 0B9D                                     u6930 15A3  
                                   u5891 1565                                     u6691 075B  
                                   u6915 17CA                                     u6931 15A2  
                                   u7707 0069                                     u6860 0BAD  
                                   u6780 0B4C                                     u6940 15C4  
                                   u7660 0088                                     u5885 1559  
                                   u6861 0BAC                                     u6781 0B4B  
                                   u6941 15C3                                     u7717 00BC  
                                   u7661 0087                                     u6870 0BB1  
                                   u5990 1676                                     u6950 0010  
                                   u7670 008E                                     u6871 0BB0  
                                   u6855 0B98                                     u6775 0B3E  
                                   u5991 1675                                     u7727 0BF8  
                                   u6951 000F                                     u7671 008D  
                                   u6880 0BC4                                     u6960 0016  
                                   u7680 00CB                                     u7737 0C11  
                                   u6881 0BC3                                     u6961 0015  
                                   u7681 00CA                                     u6890 0BF2  
                                   u6970 004A                                     u7690 0203  
                                   u6795 0B60                                     u7747 0C28  
                                   u6891 0BF1                                     u6971 0049  
                                   u7691 0202                                     u7757 1511  
                   _lcd_4bit_send_string 1594            ??_lcd_4bit_send_enable_signal 0078  
                                   _lcd1 006A                                     _main 004B  
                                   btemp 007E        lcd_4bit_send_char_data_pos@column 002A  
                                   start 0000                          ___fldiv@new_exp 003C  
                  _lcd_4bit_send_command 16BA                     _gpio_pin_write_logic 08E6  
         lcd_4bit_send_string_pos@column 002A                   keypad_get_value@keypad 0025  
                          ___fltol@sign1 0078                          __end_of___fladd 048C  
                                  ?_main 0070                          __end_of___fldiv 1000  
                        __end_of___awdiv 0870                          __end_of___lbdiv 1594  
                        __end_of___lbmod 14FD                          __end_of___flmul 07D1  
                        __end_of___flsub 1544                          __end_of___fltol 08E6  
                        ___awdiv@divisor 0070                          ___awdiv@counter 0074  
                                  _PORTA 0005                                    _PORTB 0006  
                                  _PORTC 0007                                    _PORTD 0008  
                                  _PORTE 0009                                    _TRISA 0085  
                                  _TRISB 0086                                    _TRISC 0087  
                                  _TRISD 0088                                    _TRISE 0089  
              lcd_4bit_set_cursor@column 0024                 __end_of_keypad_get_value 09DE  
              convert_float_to_string@ch 0057                    ?_lcd_4bit_send_string 0023  
                                  pclath 000A                                    status 0003  
                                  wtemp0 007E                          ___lbdiv@divisor 0070  
                        ___lbdiv@counter 0072                          ??_lcd_send_4bit 0079  
                        __initialization 07D1                      keypad_get_value@ret 0020  
                           __end_of_main 0234            gpio_pin_read_logic@pin_config 0077  
                  ?_gpio_pin_write_logic 0070                 gpio_pin_read_logic@logic 0070  
                keypad_get_value@counter 0022                                   ??_main 0059  
              ??_convert_float_to_string 004B                         led_turn_on@F1588 0066  
                       ___awdiv@dividend 0072           convert_float_to_string@findone 004F  
              keypad_get_value@col_logic 0021                         __end_of___xxtofl 0BBB  
       __end_of_lcd_4bit_send_string_pos 004B                   ?_lcd_4bit_send_command 0020  
                keypad_initialize@keypad 0023              keypad_get_value@row_counter 0023  
                                 ___flge 0A5F                                ??___fladd 0032  
                              ??___fldiv 0032                                ??___awdiv 0074  
                              ??___lbdiv 0071                                ??___lbmod 0071  
                              ??___flmul 0032                                ??___flsub 007E  
                              ??___fltol 0074                         ___awdiv@quotient 0076  
                       lcd_send_4bit@lcd 007B                         lcd_send_4bit@ret 007A  
                 ??_lcd_4bit_send_string 007D                         ___lbdiv@dividend 0071  
                             ___flge@ff1 0070                               ___flge@ff2 0074  
                           ___xxtofl@arg 0026                             ___xxtofl@exp 0025  
                           ___xxtofl@val 007A                          ___lbmod@divisor 0070  
                __end_of__initialization 07FC                          ___lbmod@counter 0074  
        __end_of_convert_float_to_string 0E31                 convert_float_to_string@i 0051  
                             ___fltol@f1 0070                  _lcd_4bit_send_char_data 1757  
                 ??_gpio_pin_write_logic 0071                           __pcstackCOMMON 0070  
                           __pidataBANK0 14A5                             __pidataBANK1 14BE  
                       ___lbdiv@quotient 0073                 lcd_4bit_send_command@lcd 0022  
               lcd_4bit_send_command@ret 0021             keypad_initialize@row_counter 0021  
           ?_lcd_4bit_send_char_data_pos 0029                  lcd_4bit_send_string@lcd 0025  
                lcd_4bit_send_string@str 0023                               __pbssBANK0 005C  
                             __pbssBANK1 00BC                        __end_of__Umul8_16 156B  
                             __pmaintext 004B                                  ?___flge 0070  
                      led_turn_off@F1583 0067         lcd_4bit_send_string_pos@str_temp 002D  
                              ?___xxtofl 007A                ?_lcd_4bit_send_string_pos 0029  
         ?_gpio_pin_initialize_direction 0070                     led_turn_toggle@F1593 0065  
                      ?_keypad_get_value 0078                               __stringtab 1000  
                     ??_keypad_get_value 0079                           _tris_registers 00AA  
              ??_lcd_4bit_send_char_data 007C                      _gpio_pin_initialize 15C5  
                                ___fladd 0234                                  ___fldiv 0E31  
                                ___awdiv 0809                      _gpio_pin_read_logic 1670  
                                ___lbdiv 156B                                  ___lbmod 14DA  
                                ___flmul 048C                                  ___flsub 1520  
                                ___fltol 0870         keypad_initialize@columns_counter 0022  
                             _error_flag 0063                                  __ptext1 0004  
                                __ptext2 1594                                  __ptext3 1757  
                                __ptext4 17A6                                  __ptext5 15F9  
                                __ptext6 0BBB                                  __ptext7 16BA  
                                __ptext8 1708                                  __ptext9 14FD  
                                _counter 0064                                  _keypad1 00B4  
                             ??___xxtofl 0020  gpio_pin_initialize_direction@pin_config 0076  
                                _res_str 00BC                     ?_gpio_pin_initialize 0079  
                   ?_gpio_pin_read_logic 0070                                  clrloop0 0802  
                   end_of_initialization 07FC                  ??_lcd_4bit_send_command 007C  
                  __end_of_lcd_send_4bit 1757         gpio_pin_initialize_direction@ret 0075  
                    _lcd_4bit_initialize 0BBB          __end_of_lcd_4bit_send_char_data 17A6  
                            ___fladd@grs 003D               lcd_4bit_send_char_data@lcd 0022  
             lcd_4bit_send_char_data@ret 0021                         ___lbmod@dividend 0073  
                          ___xxtofl@sign 0024                    ??_gpio_pin_initialize 0078  
                  ??_gpio_pin_read_logic 0071                              ___fldiv@grs 003E  
                            ___fldiv@rem 0037          lcd_4bit_send_char_data_pos@data 002B  
                   ?_lcd_4bit_initialize 0025                              ___lbmod@rem 0075  
                            ___flmul@grs 0039                      _lcd_4bit_set_cursor 15F9  
            lcd_4bit_send_string_pos@lcd 002F              lcd_4bit_send_string_pos@row 0029  
            lcd_4bit_send_string_pos@str 002B                    keypad_get_value@value 0078  
                         __end_of___flge 0B01                 ?_convert_float_to_string 0046  
                    start_initialization 07D1             ?_lcd_4bit_send_enable_signal 0079  
                   ?_lcd_4bit_set_cursor 0023                    ??_lcd_4bit_initialize 0023  
                               ??___flge 0078              convert_float_to_string@temp 0056  
                             init_fetch0 14AB                                __Umul8_16 1544  
                            __pdataBANK0 006A                              __pdataBANK1 00A0  
           lcd_4bit_send_command@command 0020                                ___fladd@a 002E  
                              ___fladd@b 002A                                ___fldiv@a 002A  
                              ___fldiv@b 002E                                ___flmul@a 002E  
                              ___flmul@b 002A                    ??_lcd_4bit_set_cursor 0025  
                              ___flsub@a 003E                                ___flsub@b 0042  
                              ___latbits 0002                            __pcstackBANK0 0020  
         gpio_pin_write_logic@pin_config 0077          ??_gpio_pin_initialize_direction 0070  
                               ?___fladd 002A                                 ?___fldiv 002A  
                               ?___awdiv 0070                                 ?___lbdiv 0070  
                               ?___lbmod 0070                                 ?___flmul 002A  
                               ?___flsub 003E                                 ?___fltol 0070  
                             ?__Umul8_16 0070                gpio_pin_write_logic@logic 0070  
                              __pstrings 1000     lcd_4bit_initialize@data_pins_counter 0025  
                              _key_value 0069                      __end_of_keypad_btns 1020  
                              clear_ram0 0801            __end_of_lcd_4bit_send_command 1708  
               _lcd_4bit_send_string_pos 0004                              __stringbase 100F  
         lcd_4bit_send_char_data_pos@lcd 002D           lcd_4bit_send_char_data_pos@ret 002C  
         lcd_4bit_send_char_data_pos@row 0029      convert_float_to_string@integer_part 0050  
                 gpio_pin_initialize@ret 007A      __end_of_lcd_4bit_send_char_data_pos 1800  
            _lcd_4bit_send_char_data_pos 17A6          keypad_get_value@columns_counter 0024  
                gpio_pin_write_logic@ret 0076                 ?_lcd_4bit_send_char_data 0020  
                      _keypad_initialize 1633                       ?_keypad_initialize 0020  
                 gpio_pin_read_logic@ret 0076            ??_lcd_4bit_send_char_data_pos 007D  
           convert_float_to_string@index 0058               convert_float_to_string@num 0046  
             convert_float_to_string@str 004A                      ??_keypad_initialize 007C  
  __end_of_gpio_pin_initialize_direction 0A5F            _gpio_pin_initialize_direction 09DE  
                            ??__Umul8_16 0072                   lcd_4bit_set_cursor@lcd 0028  
                 lcd_4bit_set_cursor@ret 0027                   lcd_4bit_set_cursor@row 0023  
                     __end_of__stringtab 1010              __end_of_gpio_pin_initialize 15F9  
            __end_of_gpio_pin_read_logic 16BA                       led_intialize@F1578 0068  
                               ___xxtofl 0B01                __end_of_keypad_initialize 1670  
                               __ptext10 1633                                 __ptext11 15C5  
                               __ptext20 0870                                 __ptext12 09DE  
                               __ptext21 1520                                 __ptext13 0961  
                               __ptext22 0234                                 __ptext14 08E6  
                               __ptext23 048C                                 __ptext15 1670  
                               __ptext24 1544                                 __ptext16 0C88  
                               __ptext25 0A5F                                 __ptext17 0B01  
                               __ptext26 0809                                 __ptext18 14DA  
                               __ptext27 0E31                                 __ptext19 156B  
                            _keypad_btns 1010   convert_float_to_string@fractional_part 0052  
                       _keypad_get_value 0961             __end_of_lcd_4bit_send_string 15C5  
            __end_of_lcd_4bit_initialize 0C88                                 init_ram0 14AF  
           __end_of_gpio_pin_write_logic 0961               lcd_send_4bit@_data_command 0078  
         lcd_4bit_send_enable_signal@lcd 007A           lcd_4bit_send_enable_signal@ret 0079  
                              stringcode 100A                            _lcd_send_4bit 1708  
            __end_of_lcd_4bit_set_cursor 1633                   __Umul8_16@multiplicand 0070  
                         _port_registers 00A0                                 stringdir 100A  
                               stringtab 1000             lcd_4bit_send_string@str_temp 0024  
                          ___fladd@signs 003A                             ___fladd@aexp 003B  
                           ___fladd@bexp 003C              lcd_4bit_send_char_data@data 0020  
                   __Umul8_16@multiplier 0078               ??_lcd_4bit_send_string_pos 007D  
                 lcd_4bit_initialize@lcd 0027                   lcd_4bit_initialize@ret 0026  
                      __Umul8_16@product 0074  
